(lp1
(dp2
S'matches'
p3
(lp4
(lp5
F0.016215659411730161
aF0
aF0.037233555899473643
aF-0.010255473535104
aF-0.010363691806147391
aF0.010472222694680402
aF-0.041450709455788541
aF0.027026412592852975
aF-0.026315206952293967
aF0.010809655674563632
aa(lp6
F-0.028575119305580567
aF-0.011763023949946294
aF0.035714172905518017
aF0
aF0
aF0.025864734847583809
aF-0.019608227857132718
aF0.048570061440327161
aF-0.0027258452115522902
aF0.032787370120606028
aa(lp7
F0.005786447030717649
aF-0.011506313388494071
aF0.0079364731662021053
aF-0.002099684203841577
aF0
aF-0.032088425297212571
aF-0.036413052970937755
aF0.04906941439070707
aF-0.029032236645629834
aF0.029900309507015069
aa(lp8
F-0.0093461668110845549
aF-0.018867862572609844
aF0.033655406920510222
aF0
aF-0.0046523543867715428
aF0.0046740999562070113
aF-0.041861880724884878
aF0.0097087050554202445
aF0.01923070486925741
aF0.02358359684638087
aa(lp9
F-0.013575264148606443
aF-0.020246116183670632
aF0.01161535640713993
aF0.004539332322047192
aF0.016613503897222326
aF0.016995725375754406
aF-0.034580318362510423
aF0.025166445410557809
aF-0.015586401236170914
aF0.035756682467915475
aa(lp10
F0
aF-0.021277823929646049
aF0.027174233585065304
aF0.0052917317835107754
aF-0.0052638767595577394
aF0.0052917317835107754
aF0.010526097951649173
aF0.031249633084062568
aF-0.010100806835970203
aF0.030611622594675043
aa(lp11
F-0.035584405992769623
aF-0.006463818781060132
aF0.003795051787669956
aF0.013502560883722807
aF-0.0095923359624961874
aF-0.0026902895521080314
aF-0.043431379565352202
aF0.039199070287093726
aF-0.022252342320246945
aF0.03275049990703436
aa(lp12
F0.0014619545468965739
aF-0.011313851739262163
aF0.021779286493501162
aF-0.0054526007618771665
aF0.024853819098359313
aF-0.0053495381624492971
aF-0.036213710673535217
aF0.025297638174145331
aF-0.025036235572970394
aF0.020096712971397854
aa(lp13
F-0.01332951560259326
aF-0.031532637622331133
aF0.046508773853368733
aF-0.01332951560259326
aF-0.031532637622331133
aF0
aF-0.023260305103836035
aF0.028574781584885644
aF-0.037036922206899241
aF0.038461414628460845
aa(lp14
F-0.012136347343245275
aF-0.035625738836714521
aF0.040764028053335247
aF0.0012238128096147484
aF-0.012225226042457092
aF0.012376531943082971
aF0.014670072661684087
aF0.031325025986815747
aF-0.011682044412670931
aF0.030732592533463578
aasS'symbol'
p15
S'RRC'
p16
sS'stDev'
p17
(lp18
cnumpy.core.multiarray
scalar
p19
(cnumpy
dtype
p20
(S'f8'
I0
I1
tRp21
(I3
S'<'
NNNI-1
I-1
I0
tbS'\x00\x00\x00\x00\x00\x00\x00\x00'
tRp22
ag19
(g21
S'\xfc\xd1c\xd1\xe8\xb7\x93?'
tRp23
ag19
(g21
S'"\xef\xf3\x96w\xec\xa1?'
tRp24
ag19
(g21
S'\x0e\xf1\r|\t\x96\xb1?'
tRp25
ag19
(g21
S'\x0f\xad\xfb\xc7\x8d,\xb1?'
tRp26
ag19
(g21
S'\xa9\xcch\x18s\x86\xb1?'
tRp27
ag19
(g21
S'{z1\x8eCk\xac?'
tRp28
ag19
(g21
S'\xd6m\x8c!\xf6,\xae?'
tRp29
ag19
(g21
S't\xe0w*\x85\r\xb3?'
tRp30
ag19
(g21
S'\xa1\xe6H\x97\xa2q\xb4?'
tRp31
asS'current'
p32
(lp33
F-0.0061529960900749952
aF-0.015343202404134467
aF0.045926624060873555
aF0.0018296916795447111
aF-0.0044352202225296979
aF0.0096959905660377356
aF-0.040487880625171918
aF0.044630726409771976
aF-0.027446867619028169
aF0.031682613639973017
asS'future'
p34
(lp35
g19
(g21
S'\x00\x00\x00\x00\x00\x00\x00\x00'
tRp36
ag19
(g21
S'.\x9c\x05\x02W\xe6\x86?'
tRp37
ag19
(g21
S'\xcdOV\x97\xe7]\x9c?'
tRp38
ag19
(g21
S'\xa9\x10\xd8\xc5%\xd2\xa6?'
tRp39
ag19
(g21
S'*\xe2\x13\xce"]\xac?'
tRp40
ag19
(g21
S'>_e\xaf\xde\xb1\xab?'
tRp41
ag19
(g21
S'\x16\x81\xdb-*G\xaf?'
tRp42
ag19
(g21
S'\xc2\xd1*<\xdeS\xb0?'
tRp43
ag19
(g21
S'\xe9\x90\xa5t\t\x91\xb3?'
tRp44
ag19
(g21
S'K\xcd\x9bz\x93\x86\xb2?'
tRp45
asS'sharpe'
p46
g19
(g21
S'\x08\x8e\xf6j]\xff\xec?'
tRp47
sa(dp48
g3
(lp49
(lp50
F-0.0009601750039525043
aF0.017779954796656415
aF-0.012039703689958974
aF0.021744317959452249
aF0.0057297199444031758
aF-0.02418325683881423
aF0.039437598989004112
aF0.015273353691208262
aF-0.029634687762084236
aF0.0060612709682553341
aa(lp51
F0.0088514667314264703
aF-0.0020083932771330359
aF-0.0074145108605228631
aF0.0073631629495252045
aF0.0044491312616708684
aF-0.013815629614005412
aF0.038819355388314505
aF0.023883055383981812
aF-0.0078423486828874626
aF0.013376570733684567
aa(lp52
F-0.0085744990920410321
aF-0.0082882583294666915
aF-0.016351789685324105
aF0.015145906225173757
aF0.012008751595292362
aF-0.008989570892170869
aF0.037010183614012385
aF0.0024492462119267582
aF0.0055846321681573023
aF0.012842788977183477
aa(lp53
F-0.0054384860220989036
aF0.0054682248867109744
aF0
aF0.010866189954542744
aF0.0053800256415179786
aF-0.016043098454676899
aF0.016304675976641769
aF0.010691862599274677
aF0
aF0.0052946264370229675
aa(lp54
F-0.0086455331412103615
aF-0.013081395348837187
aF-0.0058910162002945993
aF0.021234567901234555
aF0.023694390715667406
aF-0.0047236655644781016
aF0.044138585666824853
aF0.018636363636363642
aF-0.012048192771084319
aF0.01626016260162599
aa(lp55
F-0.010382315065145878
aF0.0081068048389641451
aF-0.026490041194738453
aF0.018464507619114497
aF-0.0035781991621624785
aF-0.012688490789899745
aF0.031280216277017783
aF0.014578030569852032
aF0.0018539500265223737
aF0.0090214932999174071
aa(lp56
F-0.0050254599648705146
aF0.0050508427730151578
aF0
aF0.010050286282034139
aF0.0099502830884082138
aF-0.0098522504077927908
aF0.0049748278728376236
aF0.0099010271824114295
aF-0.014705627834067593
aF0.0099502830884082138
aa(lp57
F-0.011254962821652541
aF0.0034860974256038795
aF-0.021198195427172495
aF0.017456201417999192
aF0.0176549853780807
aF-0.0062958668198677178
aF0.035389676304205558
aF-0.0056681462836859677
aF-0.011401123653040961
aF0.02188407337173625
aa(lp58
F-0.0072910201243511974
aF-0.0093221037771286357
aF-0.0025663080869263812
aF0.0091480965360840414
aF0.0082691805356855993
aF-0.010180991531087228
aF0.028285753249185478
aF0.0013892687957967726
aF-0.0047170385232717139
aF0.003902966378646519
aa(lp59
F0.0042068312595870978
aF0.0073692285296723288
aF-0.011112164185739312
aF0.0010299512968717805
aF0.0094481677177175611
aF-0.01010092268996058
aF0.048773426932234534
aF0.0045522979836521661
aF0.0017773198979307491
aF0.0056766933256145761
aasg15
S'CCL'
p60
sg17
(lp61
g19
(g21
S'\x00\x00\x00\x00\x00\x00\x00\x00'
tRp62
ag19
(g21
S'j\x89\xf4\xf3\xc4\xcf\x91?'
tRp63
ag19
(g21
S'M\xab\xc3V\x04\x97\xa0?'
tRp64
ag19
(g21
S'\xce\xec\x97\xde\x17\xd9\x98?'
tRp65
ag19
(g21
S'\xfd1JT\x91Q\x99?'
tRp66
ag19
(g21
S'\xc8\xa8Ag\x9e\x10\xa1?'
tRp67
ag19
(g21
S'\xe8\x9f\xf0\xb1\xaaH\xa2?'
tRp68
ag19
(g21
S'\xda\xe3\xca\x18>j\xa5?'
tRp69
ag19
(g21
S'\x87v\x1b\xb8\n\xb4\xa9?'
tRp70
ag19
(g21
S'\x9c\\\x80\xe6\x7f\x16\xa9?'
tRp71
asg32
(lp72
F-0.0075675243243243104
aF0.0063180171538990259
aF-0.0080103703834243419
aF0.022261021388040224
aF0.0089666524338172428
aF-0.016715976162334997
aF0.040456142878068709
aF0.0088935060555741328
aF-0.010660127319805675
aF0.011603854604386787
asg34
(lp73
g19
(g21
S'\x00\x00\x00\x00\x00\x00\x00\x00'
tRp74
ag19
(g21
S'\xf0\xfdc\xc3\x12\xb6m\xbf'
tRp75
ag19
(g21
S'Z\xda\xa0\x94f%\x88?'
tRp76
ag19
(g21
S'\xf2_.m\\\xdd\x87?'
tRp77
ag19
(g21
S':\x9ab\xa3\xb3\x83\x93?'
tRp78
ag19
(g21
S'B\xef\xd0\xed%\x0c\x99?'
tRp79
ag19
(g21
S'\x02[\x96\xa4*v\x9b?'
tRp80
ag19
(g21
S'\xd8\xc3\x96\x90z"\x9d?'
tRp81
ag19
(g21
S'\x08\t\x1d\x8ak\xfe\xa9?'
tRp82
ag19
(g21
S'\xf8\xaa\xc9\xdb\x1b\x17\xa7?'
tRp83
asg46
g19
(g21
S'\x14\x9b\xbe\x83\xb6s\xed?'
tRp84
sa(dp85
g3
(lp86
(lp87
F-0.0023049522606804541
aF-0.0036303348451393034
aF0.017886700584761807
aF0.004555865093064191
aF-0.0042112478356571923
aF-0.010735219278415515
aF0.0019730294539551728
aF-0.0016409359900010384
aF0.0029585888382767478
aF0.017371390489356455
aa(lp88
F-0.014921702992661474
aF-0.0063905530200517244
aF0.019532940301241378
aF0.010513993322766427
aF0.0050868058002951919
aF-0.011962403318995849
aF0.0095462126044849431
aF0.0011530572427729414
aF0.018198650564289223
aF0.0031673023197509838
aa(lp89
F-0.0046586595044761101
aF-0.0085538887101665028
aF0.017092620491263942
aF0.017125470105175775
aF-0.015263534697638118
aF-0.016938337303872175
aF0.0073147151286514943
aF-0.00048414209519877195
aF0.030351962976206431
aF0.019586334707032381
aa(lp90
F-0.002057032709103524
aF-0.0051533108695359948
aF0.00051800050458437256
aF0.0093192076282886168
aF-0.0056425234345972549
aF-0.011091049780758311
aF0.0054772822117891565
aF-0.01141369679412969
aF0.012595092820910881
aF0.026172531743975016
aa(lp91
F-0.0063999564086548357
aF-0.00074328228488484385
aF0.014312404262136879
aF0.0045399027395729768
aF-0.0039086223751630279
aF-0.01226242180352986
aF0.0094350658084965712
aF0.0045505242596873248
aF0.0085699829470718691
aF0.0032775571195379433
aa(lp92
F-0.0064573356939683114
aF-0.0047267261853746355
aF0.014841199433132618
aF-0.00058499471517548191
aF-0.0049750786950819633
aF-0.012352861108268869
aF0.0029779009990563753
aF0.0065321088524749136
aF0.00058986293912758106
aF0.020636841017389957
aa(lp93
F-0.0046082965222720264
aF0
aF0.018518524943181375
aF0.0045454560937450367
aF-0.0045248884121385649
aF-0.013636368281235564
aF0.0092165930445440528
aF0
aF0
aF0.0045662116081246684
aa(lp94
F-0.0076231847687254252
aF-0.0076818196118063932
aF0.019267131229708724
aF-0.0060759518517615376
aF-0.014603511356110986
aF-0.014302911023373877
aF0.01241256270936256
aF-0.0096701924626918824
aF0.014995654714347289
aF0.0091050060098371941
aa(lp95
F-0.0019387121159381042
aF-0.005255924029367906
aF0.019411924083890301
aF0.0010140443651483297
aF-0.0018009498553254993
aF-0.012291426873579094
aF0.0049092323052272657
aF0.0063622513997143781
aF0.0084669284563797086
aF0.0067166497518270519
aa(lp96
F0
aF-0.010460068022073601
aF0.01691227142572857
aF0.0062378652324324869
aF-0.014463288475215106
aF-0.016772173948801403
aF0.019190962507685649
aF-0.0041847681279395229
aF0.018907015942331698
aF0.012371438040297196
aasg15
S'EBAY'
p97
sg17
(lp98
g19
(g21
S'\x00\x00\x00\x00\x00\x00\x00\x00'
tRp99
ag19
(g21
S'\x1b\xae\xb6\x14o\xb5y?'
tRp100
ag19
(g21
S'\x1f\x12\xc3\xff\x00\xf5\x86?'
tRp101
ag19
(g21
S'\x0f);\xa1\xae\x82\x8f?'
tRp102
ag19
(g21
S'\xcd\xb2\xc4\nF\xa0\x97?'
tRp103
ag19
(g21
S'\x1d2\xc9\xf3\x10\x0b\x97?'
tRp104
ag19
(g21
S'\x1f\x98s\x11V\t\x9c?'
tRp105
ag19
(g21
S'1\x7f\x80\x0c&\x1b\xa0?'
tRp106
ag19
(g21
S'\x87\xe6\xb0\xe8\xe7\xca\x9f?'
tRp107
ag19
(g21
S'f\x9c\xd2\xb1"\xa7\xa4?'
tRp108
asg32
(lp109
F-0.0062952470884481996
aF-0.0066518530250237514
aF0.019451466216471133
aF0.0096965908569467008
aF-0.0065055454307788637
aF-0.012472715933894561
aF0.0085254499526364706
aF-0.0028178145642511828
aF0.014128697017268391
aF0.018575944847552501
asg34
(lp110
g19
(g21
S'\x00\x00\x00\x00\x00\x00\x00\x00'
tRp111
ag19
(g21
S'\r\x18#\xe0#\xa0^\xbf'
tRp112
ag19
(g21
S'Pu?\xc3V\xbey?'
tRp113
ag19
(g21
S'\xad\xae\x03\xbc,j\x87?'
tRp114
ag19
(g21
S'Ry\x9c\xb5Y\x83\x92?'
tRp115
ag19
(g21
S'\x1e\x10\xb2\xd5\xe3\x0c\x94?'
tRp116
ag19
(g21
S'\xbd\x1e\xd9\xc5\xa7y\x9f?'
tRp117
ag19
(g21
S'\xdd\x9d\xf56wD\xa1?'
tRp118
ag19
(g21
S'p\xa6\xdcm=B\xa0?'
tRp119
ag19
(g21
S'\xbex0`\xde\xc0\xa3?'
tRp120
asg46
g19
(g21
S'N\xd8<98\x9b\xee?'
tRp121
sa(dp122
g3
(lp123
(lp124
F0.019583913145200658
aF-0.0091236637839702036
aF0.0072691734277135047
aF-0.0014433897379048997
aF-0.0031317081698256353
aF-0.026582928934231385
aF0.0037239695057741779
aF0.0061835078727065403
aF-0.0031956732800183267
aF0.012083859305476409
aa(lp125
F0.0053226493074954116
aF-0.0087776970117760898
aF0.018132634757956116
aF0.00096641352075892508
aF-0.013103061511566514
aF-0.018447986324837899
aF0.002313722337222969
aF0.0085234182498913659
aF-0.010564123824898367
aF0.027831079414400033
aag92
a(lp126
F0.0087455538066460951
aF-0.008669732197226044
aF0.0087455538066460951
aF0.008669732197226155
aF-0.005729070960597037
aF-0.0086462327697195453
aF0
aF0
aF-0.0029062940347581883
aF0.026238171269821451
aa(lp127
F0.023437517582639265
aF-0.019083983454439235
aF0.0038910534913369713
aF0
aF-0.0077519437548617502
aF-0.0078125058608798179
aF0.0078740217015720454
aF0.011718758791319632
aF-0.0077220134479005454
aF0.027237374439358038
aa(lp128
F0.0020433784176750324
aF-0.0044861617296393244
aF0.011880417753719627
aF-0.0026316089587118856
aF-0.010554102923282037
aF-0.019076914214144303
aF0.0037839526719803812
aF0.0067015701262037267
aF-0.0031204874388398429
aF0.011268791798327729
aa(lp129
F0.013228310696320475
aF-0.0026110558836076919
aF-0.0052361111978010653
aF-0.007895343438192896
aF0.0026529472346437811
aF-0.013228642682233695
aF0.010724586679334526
aF0.010611123205266167
aF-0.0026250920593764242
aF0.021051717339571833
aa(lp130
F0.012038265005900401
aF-0.0066083976554656672
aF-0.0051171835545715232
aF0.0056578850494587891
aF-0.0043985269149238232
aF-0.013356652350628634
aF0.0097886286555099577
aF0.0078374960520006601
aF-0.010743916584142432
aF0.018618152668597326
aa(lp131
F0.011346149207650898
aF-0.01121885836668301
aF0.011346149207650898
aF0
aF0
aF0
aF0
aF0
aF0
aF0.011261787671657605
aa(lp132
F0.010989008371639079
aF-0.010869562656609542
aF-0.0036629829421442103
aF0.012867633765700812
aF-0.0054446742618520878
aF-0.0072992289332150387
aF0.0091911840509638684
aF0.010928958836183673
aF0.0036035831271282932
aF0.014362634142064729
aasg15
S'ETFC'
p133
sg17
(lp134
g19
(g21
S'\x00\x00\x00\x00\x00\x00\x00\x00'
tRp135
ag19
(g21
S'\x926C\x97\x1ak\x80?'
tRp136
ag19
(g21
S'M\xc9\xbfd\x06\t\x90?'
tRp137
ag19
(g21
S'\xd1\x131\xea\xb7`\x95?'
tRp138
ag19
(g21
S'A\x02\\#\xb5\x92\xaf?'
tRp139
ag19
(g21
S',\\\xacj1.\xb5?'
tRp140
ag19
(g21
S'\xfd\xc1\xdc\\M\xaa\xb0?'
tRp141
ag19
(g21
S'\x18\xf9+\x04=\xe7\xa5?'
tRp142
ag19
(g21
S'7\xe7\x99~>\xc7\xa0?'
tRp143
ag19
(g21
S'\xb5\xba\xef\xf7e\xe4\xa2?'
tRp144
asg32
(lp145
F0.012797760853101947
aF-0.010529975429975419
aF0.010996771514836103
aF0
aF-0.0035087719298246113
aF-0.017957781690140812
aF0.0075296166199217826
aF0.010676156583629791
aF0.00070422535211278614
aF0.024630577058409455
asg34
(lp146
g19
(g21
S'\x00\x00\x00\x00\x00\x00\x00\x00'
tRp147
ag19
(g21
S'\x96\x17\x83SD\xf5U?'
tRp148
ag19
(g21
S'gj\xd3\xc0\xf0\x8e\x85?'
tRp149
ag19
(g21
S'\x9b\x0c\x89\xe4\xbcz\x81?'
tRp150
ag19
(g21
S'k\xa3\xc6\xbb\x83\xf7\xa2?'
tRp151
ag19
(g21
S'\x94Tc-\x92%\xa9?'
tRp152
ag19
(g21
S'\x03\x12\xdb\xd9g6\xab?'
tRp153
ag19
(g21
S'v\xad\xd2bsc\xa5?'
tRp154
ag19
(g21
S'\xc66_rU\x8e\xa0?'
tRp155
ag19
(g21
S'1}\x16\xec\x8cf\xa1?'
tRp156
asg46
g19
(g21
S'\xbe\xeaM\xb27y\xed?'
tRp157
sa(dp158
g3
(lp159
(lp160
F0.016258664624067175
aF0.0077169066055641933
aF0.0048561442594197389
aF0.0053903552046460738
aF-0.00073952104792621837
aF-0.026086949367579545
aF-0.0024696228464003585
aF0.01085513913625904
aF-0.015260002484706704
aF0.018366143333095542
aag130
a(lp161
F0.0061333350416345467
aF0
aF-0.0060959465589923477
aF-0.0061370719504421573
aF0
aF-0.012345639224154081
aF0.018752114235617401
aF0.012266136239153637
aF-0.012117501317119722
aF0.024539746295922611
aa(lp162
F0.011027401488641212
aF-0.00092169701486110483
aF-7.6957399572077752e-05
aF0.010226063066974451
aF0.0087525218899839885
aF-0.022031073427905695
aF0.018669949321419372
aF-0.0019690613349569027
aF-0.011382605822236313
aF0.001995662021150639
aa(lp163
F0.0066889921897214516
aF0.00066441955552304355
aF-0.0013280445603668907
aF0.0059841037932516277
aF-0.0085922203843810767
aF-0.019333363940644936
aF0.0095174124815622877
aF0.026262507041879882
aF-0.013123330441361589
aF0.026595772729733656
aa(lp164
F0.0059239206315792959
aF0.0086785415461219061
aF0.0030728594333176884
aF0.0064331362376277906
aF-0.0038554826761516407
aF-0.016398461156572789
aF0.0020710061487553802
aF0.0038235258691533681
aF-0.011838596389977266
aF0.018231061782467497
aag129
a(lp165
F0.010381585174604609
aF0.0028255885221110445
aF0.0035860557251296953
aF-0.00025619230866869621
aF-0.0030753436448192352
aF-0.0028277544320119926
aF0.017272444951697816
aF-0.0038012809663930851
aF-0.012719413843189897
aF0.023189840416424561
aa(lp166
F0.0044636224352499823
aF0.0044457223745907196
aF0.0044224671349613696
aF0.017622119603508492
aF0.0086588829895525299
aF0
aF0.012875490646807359
aF0.012711819730760174
aF-0.012552257693743263
aF0.016948477934478248
aa(lp167
F0.0093453635768902966
aF0
aF0.0046295212858905397
aF-0.018433160807644674
aF0.00469535350067396
aF-0.023365073855010896
aF0.0095699015467571209
aF0
aF-0.0094791866636427264
aF0.023924061314536858
aasg15
S'RF'
p168
sg17
(lp169
g19
(g21
S'\x00\x00\x00\x00\x00\x00\x00\x00'
tRp170
ag19
(g21
S'g:\x91\x1f\xc2\r\x92?'
tRp171
ag19
(g21
S'\x97\xef\x129\xc0\xcf\x95?'
tRp172
ag19
(g21
S'\x8a\xab\xbe\x0c1\xf9\x92?'
tRp173
ag19
(g21
S'\xdf\xce\xc3>B\x03\x95?'
tRp174
ag19
(g21
S'tT5\xcf`v\xa0?'
tRp175
ag19
(g21
S'l\x046\xc4i7\xa1?'
tRp176
ag19
(g21
S'(\xe8`\xac\xb5\xc6\xa0?'
tRp177
ag19
(g21
S'I\x17\x99 \xd4S\xa0?'
tRp178
ag19
(g21
S'`m\xad\xd4\xde#\xa4?'
tRp179
asg32
(lp180
F0.010460251046025068
aF-0.0010351966873705784
aF0.0031088082901553739
aF0.0092975206611570112
aF0.001023541453428842
aF-0.022494887525562259
aF0.015690376569037694
aF0.012358393408856767
aF-0.016276703967446605
aF0.020682523267838603
asg34
(lp181
g19
(g21
S'\x00\x00\x00\x00\x00\x00\x00\x00'
tRp182
ag19
(g21
S"\x809R'/\xe5u?"
tRp183
ag19
(g21
S'\xd5\x02\\\xf9\x88\xb5\x8d?'
tRp184
ag19
(g21
S'\xd8M\xeb\xd2Y\xd9\x89?'
tRp185
ag19
(g21
S'\x1f\xa9\x12cO\xca\x93?'
tRp186
ag19
(g21
S'\x08\x12\xcd\xea6\xf2\xa0?'
tRp187
ag19
(g21
S'\xef\xe2fR\x02_\xa2?'
tRp188
ag19
(g21
S']\x80\xfek\x84\xfd\xa2?'
tRp189
ag19
(g21
S'2\xbb\x0cM.j\x9d?'
tRp190
ag19
(g21
S':K\xed\x95\xbf\x1e\xa1?'
tRp191
asg46
g19
(g21
S'Hf\xbbY\x9c3\xeb?'
tRp192
sa(dp193
g3
(lp194
g87
a(lp195
F-0.0012892934451390673
aF0.0012909578686570776
aF0.013666913992653186
aF-0.001272019406188494
aF-0.012735603380503216
aF-0.012899918928967639
aF-0.012284282765027079
aF0.0023815761480181484
aF-0.013199571175412166
aF0.013108550985869225
aa(lp196
F0.0027075441641197908
aF0.006300705799003878
aF0.014311330854819192
aF0.0035272565356743598
aF0.010544860425137205
aF-0.011304348641383627
aF0.0017590223746432358
aF-0.0035118672961357909
aF-0.0079295014407905224
aF0.015985762004427286
aa(lp197
F0.0010826917421337312
aF0.0018024878162659641
aF0.010435376173454592
aF0.0024928539159291118
aF-0.012433413688246112
aF-0.0086330723453173323
aF-0.0050797779106730809
aF0.0069292371642105804
aF-0.0025352892807274266
aF0.0098038554362586804
aa(lp198
F0.0098445174203938435
aF-0.0031241763299598969
aF0.0068376559047983064
aF0.0042445258295119364
aF-0.0061989642897274282
aF-0.019705134294663744
aF0.0024584056670147688
aF-0.0059145510492372147
aF-0.0076912770489004937
aF0.010529414715541132
aa(lp199
F0.003263843944322652
aF0.0016790244866374492
aF0.011105360628035793
aF-0.0023832238203332114
aF-0.0084129482265705331
aF-0.0011521896889570761
aF-0.0035654832994861489
aF-0.007577284296515112
aF-0.0057264105997434705
aF0.014078486362045622
aa(lp200
F0
aF0
aF0.014084268927517456
aF0.0069448049953058444
aF-0.006896907318905349
aF-0.0069443286712320253
aF0
aF-0.0069928895949409337
aF0
aF0.0070421344637587278
aag128
a(lp201
F0.0083446615181332288
aF0.00019249673697542923
aF0.006734614959647168
aF-0.0030581046863248219
aF-0.0019171433899038055
aF-0.009988476819945304
aF-0.00038805999307922563
aF-0.0023291694376468869
aF-0.0052529251968717631
aF0.019949141249916879
aa(lp202
F0.0078096703850971793
aF0.010449688548049979
aF0.018591750377895115
aF-0.0029660467687932725
aF-0.014759729380111008
aF-0.0047613865526164485
aF0.0030338562369178466
aF0.0016286520664079371
aF-0.0068524357575839639
aF0.015202831286759753
aasg15
S'ADM'
p203
sg17
(lp204
g19
(g21
S'\x00\x00\x00\x00\x00\x00\x00\x00'
tRp205
ag19
(g21
S'\x92\xaaA\xc2\x92\xb8\x8c?'
tRp206
ag19
(g21
S'\xba\xaf\xd1\xf0Lx\x94?'
tRp207
ag19
(g21
S'\x98H\xa4\x94In\x93?'
tRp208
ag19
(g21
S'\x94\xb4\xe9\xc9\xa2G\x95?'
tRp209
ag19
(g21
S"'\x13\xf6\xc9\xb1\x1e\x98?"
tRp210
ag19
(g21
S'\xd6`%\xb3\xf1\xa9\x9e?'
tRp211
ag19
(g21
S'\x07\xe6\x19\xb6Z\x88\xa1?'
tRp212
ag19
(g21
S'\xb7\xbeP\xb0\t\x9c\x9c?'
tRp213
ag19
(g21
S'\xb6\xfb\xaf\\_\x02\xa2?'
tRp214
asg32
(lp215
F0.0035689032493196864
aF-0.00071119013750590521
aF0.015658338521549752
aF0.003971011353164816
aF-0.011865960912051965
aF-0.013421214659260374
aF-0.00023873507213669206
aF-0.00095490572821459662
aF-0.0076463325040063996
aF0.015410522884915146
asg34
(lp216
g19
(g21
S'\x00\x00\x00\x00\x00\x00\x00\x00'
tRp217
ag19
(g21
S'\xd0[\x893\x1e\xa1c?'
tRp218
ag19
(g21
S'\xca\t~\xe8\x8b\x17}?'
tRp219
ag19
(g21
S'\xe4\x9a\x85\x8bA\xba\x85?'
tRp220
ag19
(g21
S'\xe0\xf8\xdd\xb2\xe1Q\x8e?'
tRp221
ag19
(g21
S'6\x9aw\x02\xfeg\x8d?'
tRp222
ag19
(g21
S'\xe4"\xd1\x1c\xf1\xdb\x98?'
tRp223
ag19
(g21
S'\xf6Q\x0b\xa3\xff|\x9b?'
tRp224
ag19
(g21
S'\xa6\xb0\x1c\xcf\xf7%\x9a?'
tRp225
ag19
(g21
S'\x9dH\xc1\x0f\xd5*\xa0?'
tRp226
asg46
g19
(g21
S'\xe2\xa5\xff;#\xba\xec?'
tRp227
sa(dp228
g3
(lp229
(lp230
F-0.0099880978072213796
aF0.0033187289527760368
aF0.010518635534469665
aF0.012241691488726584
aF-0.01638494008929204
aF-0.0078662243450783736
aF0.0063295101342979426
aF0.0069518236988926506
aF-0.0059833216059293074
aF-0.0013890185430167534
aa(lp231
F-0.01497328515162874
aF-0.0029859141133723706
aF0.017968963131687596
aF0.01390747792037661
aF-0.015826904496706148
aF-0.0040204064067398716
aF0.012109790084186554
aF0.0015952605365607846
aF-0.0098220908080868981
aF0.0067023971613552336
aa(lp232
F-0.010000019694511839
aF-0.00064472450438734564
aF0.0060214729935580075
aF0.0064130757948552318
aF-0.01593034012996742
aF-0.0094971266626015516
aF0.0052299303080124001
aF0.0036851999299386696
aF-0.0023758368458454936
aF0.0090929177347089316
aa(lp233
F-0.0093284744692315857
aF0.0018849543535520807
aF0.0075171904026033907
aF0.013060073720817078
aF-0.011048410065869698
aF-0.0055864432577201846
aF0.013108963661258893
aF0.0036950278994840723
aF-0.0036814249316517631
aF0.0073921310743960507
aa(lp234
F-0.0066176472210208422
aF0.013570269271410636
aF0.0087633150553400631
aF0.014237452081019506
aF-0.012847894666854492
aF-0.0043384186869886675
aF0.0045993462938914058
aF-0.010843397590361454
aF-0.017539513216553289
aF0.0136374652299794
aa(lp235
F-0.0093625227603961868
aF-0.00083388467688182274
aF0.0098761859768560605
aF0.013223140860141536
aF-0.0091081976375256297
aF-0.0078199891318424895
aF-0.0059458102876104833
aF-0.001947405785886895
aF-0.0083623414634146249
aF0.0056219394062701948
aa(lp236
F0.0071732008289634554
aF0
aF0.0034292623473444112
aF0.017875887959749141
aF-0.013946354818161847
aF-0.012572019296724536
aF0.01220163145267677
aF-0.0013103235357951096
aF-0.020204596593336642
aF0.0091055008216354514
aa(lp237
F-0.006981693504600834
aF-0.0030465709580125284
aF0.013164027316795484
aF-0.0039442701007590128
aF-0.0090845490919529304
aF-0.0061205453058896095
aF0.012079526007129304
aF0.00070207395131233489
aF-0.020112190557773482
aF0.010978502238661146
aa(lp238
F0
aF0
aF0.012424268020179687
aF0.006134003807443454
aF-0.018293590741449036
aF-0.0124242680201799
aF0.012580572423820734
aF0.0062121340100897366
aF-0.012347563302248055
aF0
aa(lp239
F-0.0045177493339466218
aF0.0072611648104944247
aF0.0063077178304375712
aF-0.002700861037597493
aF-0.010381469845956084
aF-0.0072976085933514232
aF0.0066621097618278962
aF0.0015974282042432806
aF-0.012759115921324766
aF0.01223168864891452
aasg15
S'HSIC'
p240
sg17
(lp241
g19
(g21
S'\x00\x00\x00\x00\x00\x00\x00\x00'
tRp242
ag19
(g21
S'\x1d\xfe}\xd2\xe0\xcd\x84?'
tRp243
ag19
(g21
S'y#\xc4\xc4\x97\x13\x93?'
tRp244
ag19
(g21
S'\xf2\xeb\xc9Y-)\x94?'
tRp245
ag19
(g21
S'i\xe7\xc8\xf3[\xae\x9b?'
tRp246
ag19
(g21
S'\x0bn\x13\x92\xcf!\x9f?'
tRp247
ag19
(g21
S'\x169\xc1\xa6\xe0\x12\xa0?'
tRp248
ag19
(g21
S'IS\xff\xc1E\x8e\xa1?'
tRp249
ag19
(g21
S'!M\x16\x0c}T\x9d?'
tRp250
ag19
(g21
S'6\x16\x92\xbb\x1a\xfd\x9a?'
tRp251
asg32
(lp252
F-0.0098720898279553247
aF0.0019695162966400117
aF0.012776424825987303
aF0.014556003925400124
aF-0.016917754763975144
aF-0.011128014797105819
aF0.0070717564589767171
aF0.00018317762268604243
aF-0.016178320827014949
aF0.011355892448869762
asg34
(lp253
g19
(g21
S'\x00\x00\x00\x00\x00\x00\x00\x00'
tRp254
ag19
(g21
S'\x12\xc0\xda\x86grn?'
tRp255
ag19
(g21
S'\x9a1\x06K*\x18\r\xbf'
tRp256
ag19
(g21
S'\xa3~\xeb\xfb\xc7\x7f[?'
tRp257
ag19
(g21
S'^p\xeb\xeb3J\x82?'
tRp258
ag19
(g21
S'P\x93\xceFE\xf3\x8d?'
tRp259
ag19
(g21
S'\xa5*B7\x06S\x90?'
tRp260
ag19
(g21
S'<\xda\xac\xf8&\xbf\x93?'
tRp261
ag19
(g21
S'\x1a\xdcV\xd9\x08\xec\x97?'
tRp262
ag19
(g21
S'Ps\x89\xd7\x18\xde\x9e?'
tRp263
asg46
g19
(g21
S'\xa8\x82H\xca\xafL\xf2?'
tRp264
sa(dp265
g3
(lp266
(lp267
F0
aF0
aF0.011363641958461545
aF-0.0028089089960544092
aF-0.008450789027252846
aF-0.0056818209792308455
aF-0.0028570617455441179
aF0.0057306613972146619
aF-0.0028490863124535238
aF0.0028572267982158962
aa(lp268
F0.011173239850504741
aF-0.0055244797034619143
aF0.0055551691225286222
aF-0.0055244797034619143
aF-0.011111161416002205
aF0
aF0
aF0.0056175870388861272
aF-0.0055862060402379395
aF0.0056175870388861272
aa(lp269
F-0.00035038114936941552
aF-0.0049071755487669084
aF0.0019373266254180518
aF-0.0073826507598713873
aF-0.010625151124396976
aF-0.0064435249717475886
aF0.00090077705077779946
aF0.009359260549704625
aF0.0030313467629706817
aF0.0033777610722039936
aa(lp270
F0.0093473257395973383
aF-0.01169775449041803
aF0.011507424929013471
aF-0.0045506113612426256
aF-0.0065306247947651865
aF0.0027937772032442
aF0.0021304679279541194
aF0.0073589068258473282
aF-0.0087661858169089026
aF0.0047493680043350344
aa(lp271
F0.0021251507255146702
aF-0.0051836963902183453
aF0.0099478453635937214
aF-0.0056284660689624863
aF0.0070754513782619512
aF-0.0028102785191065779
aF0.0004696099057639022
aF0.0051643617421043495
aF-0.0044371603942230907
aF0.0016420434180508183
aa(lp272
F-0.014704311997333012
aF-0.0049781096664408874
aF0.0050030152248932798
aF-0.0049781096664408874
aF-0.012496579645770811
aF-0.0075957914446128233
aF-0.005101715797563253
aF0.010255072361098462
aF-0.010150973394403271
aF0.0051278767674758415
aag128
a(lp273
F-0.0045440715464533663
aF-0.0031123902917097059
aF0.0070767097545329453
aF0.0014467945232015469
aF-0.0089774263815904625
aF0.0015618663850617313
aF0.0014554439554981798
aF0.0067476558838310769
aF-0.010827009092670521
aF-0.0055248445981201507
aa(lp274
F0
aF-0.0073531146791341933
aF0.0074075834900316573
aF0
aF-0.0073531146791341933
aF0
aF0
aF0.0074075834900316573
aF0
aF0
aa(lp275
F-0.002252906937258214
aF-0.0045150350053052438
aF0.0090710260105824232
aF-0.0022468962027196839
aF-0.009009726103239777
aF0.0022724300870346783
aF0.011338303867200056
aF0.004484529293452607
aF-0.0022326578954239983
aF0.0089483215977373964
aasg15
S'CPB'
p276
sg17
(lp277
g19
(g21
S'\x00\x00\x00\x00\x00\x00\x00\x00'
tRp278
ag19
(g21
S'w\xb7@\xa08|\x8f?'
tRp279
ag19
(g21
S':\xa3\xbb\x8evC\x93?'
tRp280
ag19
(g21
S'\x80q28QD\x8e?'
tRp281
ag19
(g21
S'\x8cc\x87\xeb\xdb\xcd\x96?'
tRp282
ag19
(g21
S'n\x1b\xbc\x01\xa5J\x96?'
tRp283
ag19
(g21
S'\xd7Os\x9d+\xfd\x9a?'
tRp284
ag19
(g21
S'\xc5\x85\x02\xa8E\xbb\x9c?'
tRp285
ag19
(g21
S']\x98\xc5\xb4-)\x9a?'
tRp286
ag19
(g21
S';(\xb6\xa4\xcb\x82\x9b?'
tRp287
asg32
(lp288
F-0.0012639941989166863
aF-0.0052431928178774869
aF0.01235916030534346
aF-0.0055655654297025459
aF-0.0090269003254540587
aF-0.0056476044023976522
aF0.0005496335452680371
aF0.0058597142307322582
aF-0.010012725286728558
aF0.005884516258100111
asg34
(lp289
g19
(g21
S'\x00\x00\x00\x00\x00\x00\x00\x00'
tRp290
ag19
(g21
S'\x85\xfb\xf7\x80\xe2\xe5\x81?'
tRp291
ag19
(g21
S'\xe50xj\xc8O\x8b?'
tRp292
ag19
(g21
S'\xfd\x87\xe9gb4\x8e?'
tRp293
ag19
(g21
S'X<eZ\xa1\xd2\x96?'
tRp294
ag19
(g21
S'3\xf0\xe2\xbb\xc4\xff\x9a?'
tRp295
ag19
(g21
S'\xa3Su\x00\x88\xce\x9f?'
tRp296
ag19
(g21
S'#\xdf\xb3m\xad\xc0\x9d?'
tRp297
ag19
(g21
S'\xe8\xb9\x1a\x0f\xd4\x90\x9e?'
tRp298
ag19
(g21
S'\x90>D\xff\xb1\x10\x9d?'
tRp299
asg46
g19
(g21
S'\xb6\xcci\xd8i\xe7\xf0?'
tRp300
sa(dp301
g3
(lp302
(lp303
F-0.0032259534565710762
aF-0.0097087290744929319
aF0.0065365512058793446
aF-0.0032470510872398229
aF-0.0032576287742932153
aF-0.013071121638666264
aF-0.0033114070399935663
aF-0.0033227186843328782
aF-0.0033334851214728094
aF0.003344634410517034
aag267
a(lp304
F-0.00045701898828185209
aF-0.0077749853761489062
aF0.0036875300211414949
aF-0.0082662767292956685
aF-0.010187344345718876
aF-0.011929981522794994
aF0.0054449294082472826
aF0.0080055349483490624
aF-0.0055092928139886099
aF-0.0016500699397927197
aag274
a(lp305
F-0.0038301272958349208
aF-0.0080240631337727183
aF0.0091001140159763828
aF0.0015030019699149759
aF-0.00083379917691510852
aF-0.0013350812648294124
aF0.00050131092761386564
aF0.0035076582369650685
aF-0.003328906261543637
aF0.0081829963654819829
aa(lp306
F0
aF-0.0065877000891827247
aF0.0066313856691467676
aF0
aF-0.0016447054467939204
aF-0.0016518614232776552
aF0.0049593299315046366
aF0
aF-0.0016464293976504549
aF0.0049429946423886068
aa(lp307
F0
aF-0.011110583488711769
aF0
aF0
aF0
aF-0.011237440431180787
aF0
aF0
aF0
aF0
aa(lp308
F0.0016267671775414749
aF-0.0044083104350182666
aF0.010253989136125222
aF-0.00092266134647079451
aF-0.0064650869215637334
aF-0.0018591333078915675
aF-0.0058207042420655598
aF-0.00093679471880329772
aF-0.00046882184610891353
aF0.0021106878440622463
aa(lp309
F0.0025132991714104809
aF-0.0025069983345734699
aF0.0075368446994253701
aF0
aF-0.0074804655919792273
aF0.0050252106997272583
aF0.0024990756181622943
aF0
aF-0.0074804655919792273
aF0.0025132991714104809
aa(lp310
F-0.003215435578489662
aF-0.016129039780805973
aF0.006557380157744477
aF0.0065146610486498399
aF-0.0097087424069843952
aF-0.0065359508006982295
aF0
aF0.0032894752487348557
aF-0.0032786900788721331
aF0.0032894752487348557
aasg15
S'GIS'
p311
sg17
(lp312
g19
(g21
S'\x00\x00\x00\x00\x00\x00\x00\x00'
tRp313
ag19
(g21
S'W\x0e5\xcd\xb4a}?'
tRp314
ag19
(g21
S'<\xbd\x06\x03.\x84\x89?'
tRp315
ag19
(g21
S'L]n7;\n\x93?'
tRp316
ag19
(g21
S'J\xb0\xb8t\\\xf0\x92?'
tRp317
ag19
(g21
S'\xfb4\xcf\xcaD\xbc\x93?'
tRp318
ag19
(g21
S'\xfd\xdb\xe9v3\xaf\x9a?'
tRp319
ag19
(g21
S'\xd6,\xe6\\\xcff\xa2?'
tRp320
ag19
(g21
S'\xf1\xce\xa4)X\xe9\x9e?'
tRp321
ag19
(g21
S'\x8f\xf8\xad\xfe\t\x07\x9d?'
tRp322
asg32
(lp323
F0.00030674949204617885
aF-0.0078209171571985477
aF0.0086554099840221617
aF-0.0030647256186110286
aF-0.0063018139041441795
aF-0.011600927715361866
aF0.0003129264377800648
aF0.0025031915676842417
aF-0.0065543381225237271
aF0.0034558749607289264
asg34
(lp324
g19
(g21
S'\x00\x00\x00\x00\x00\x00\x00\x00'
tRp325
ag19
(g21
S'\xb6\xb7\xd0#`\xf2u?'
tRp326
ag19
(g21
S'\x9b|<\x91Ulg?'
tRp327
ag19
(g21
S'\xac\xff\xed\xe9\x7fjs?'
tRp328
ag19
(g21
S'\xe5\x07\xbd?&\x88~?'
tRp329
ag19
(g21
S'\xe68\xe6\x15J\xf7\x87?'
tRp330
ag19
(g21
S';,\xceo\x02\x10\x97?'
tRp331
ag19
(g21
S'\xe0\xa8\xc3,\x18*\x9e?'
tRp332
ag19
(g21
S'\x88rra\x9b\xd6\x9a?'
tRp333
ag19
(g21
S'\xd0\xd8\x12?\xa6\x16\x9b?'
tRp334
asg46
g19
(g21
S'\xa7\xe0!O\xc7\xdc\xed?'
tRp335
sa(dp336
g3
(lp337
g200
a(lp338
F-0.006081549232121339
aF0.0044870538744224437
aF0.0032487390717163998
aF0.0068811971201647353
aF-0.0060301357420513959
aF-0.011122334053821131
aF-0.007975513347048855
aF-0.014223860964279706
aF-0.0073190785837162929
aF0.011375551944437151
aa(lp339
F0
aF0.0059081162155597356
aF0.014792244334546217
aF0.0064308632471598718
aF-0.011714581084176385
aF-0.0081896729101717525
aF-0.0015210766494715509
aF-0.0095756670200183684
aF-0.015161492190957016
aF0.0037929966079178245
aa(lp340
F-0.0089123608662483155
aF0.0043007140556488117
aF0.017518902239462536
aF0.0034433969380065783
aF-0.0015252022181737139
aF-0.0076374511659863219
aF0.0039763637583998378
aF-0.0051104401583942707
aF-0.0069346486419668389
aF0.013060833971541766
aa(lp341
F0.0031056350966566144
aF0.0092878610260500628
aF0.0061349927040400005
aF0.0060975840702567055
aF-0.0060606288761656602
aF-0.0060975840702567055
aF0
aF-0.0061349270013069416
aF-0.0030863983290994514
aF0.0092878610260500628
aa(lp342
F-0.00052576235541524762
aF0.0057864807995790055
aF0.013075313123676094
aF0.0056788329541130108
aF-0.0025667351129363813
aF0.00308800823468856
aF0.0020523858388917485
aF-0.011776855515777953
aF-0.0015543524121426177
aF0.019200778412039439
aa(lp343
F-0.00033717018606970253
aF-0.0028667375734252
aF0.015728065425933791
aF0.0053279942111335594
aF-0.00099373141672651341
aF-0.0044761208406068698
aF0.0026644408138995776
aF-0.0051760684550232923
aF-0.0065458745718199648
aF0.0070958250130588336
aag196
a(lp344
F0.0026092808641295737
aF0.014964252127385648
aF0.016025619110084648
aF0.01135648006386057
aF-0.0056145113010994769
aF-0.022584719400635375
aF0.0012837717518208046
aF-0.010256480386190713
aF-0.0038859707812515386
aF0.012353657592393161
aag199
asg15
S'TJX'
p345
sg17
(lp346
g19
(g21
S'\x00\x00\x00\x00\x00\x00\x00\x00'
tRp347
ag19
(g21
S'\x15\xceek\xfc\xc5\x8c?'
tRp348
ag19
(g21
S'\xdd\xf6\x04\xfc\x98\x0f\x97?'
tRp349
ag19
(g21
S'M\xae\xec1?/\x95?'
tRp350
ag19
(g21
S"'\xff)2\x14\x1b\x96?"
tRp351
ag19
(g21
S'\xb4\x8d\xea5\xc5\xd9\x9b?'
tRp352
ag19
(g21
S'\xab\xa0\xd3\xf0\xfe\xe6\x9d?'
tRp353
ag19
(g21
S'\xaaAi\xd7\xf2\x14\xa1?'
tRp354
ag19
(g21
S'\x011v\x88J\xef\x9d?'
tRp355
ag19
(g21
S'\x08\xc7JGzj\x99?'
tRp356
asg32
(lp357
F0.0002678987616954286
aF0.0049537553901790789
aF0.013855582570092879
aF0.0052562682064722348
aF-0.0062745490196077962
aF-0.011049684729663917
aF0.00079805799414728795
aF-0.011297169359308022
aF-0.0069901331763696636
aF0.012318884026578511
asg34
(lp358
g19
(g21
S'\x00\x00\x00\x00\x00\x00\x00\x00'
tRp359
ag19
(g21
S'\xaa\x10\xcb4\\;{?'
tRp360
ag19
(g21
S'\xcaM\xbc\xf7\xe9*{?'
tRp361
ag19
(g21
S'\xb68\xda\x88\x84H\x82?'
tRp362
ag19
(g21
S'6\x94\xfb8\x87\xec\x86?'
tRp363
ag19
(g21
S'\x1b\xd6\xcd\xf9\xa9\xa3\x89?'
tRp364
ag19
(g21
S'F\xcbA\xe0\x88n\x96?'
tRp365
ag19
(g21
S'\xc7\x8b\xd3\x897\xb9\x94?'
tRp366
ag19
(g21
S'J\xdb\xd6\x02\x84d\x92?'
tRp367
ag19
(g21
S'\xea2Sld~\x97?'
tRp368
asg46
g19
(g21
S'\x19\xe6T>p\x94\xed?'
tRp369
sa(dp370
g3
(lp371
g199
a(lp372
F0.0091322524386885165
aF-0.0045248045618497173
aF0.0090907429589105158
aF-0.0045044229284346357
aF-0.013574744446116584
aF-0.0091741458085620765
aF0
aF-0.0046295450253712464
aF-0.004651417388637503
aF0.0086727128580567584
aa(lp373
F0.01030915238166228
aF0
aF0
aF0
aF-0.0051019791107305605
aF-0.0051281427881123536
aF0
aF-0.0051551871397691991
aF-0.005181286693360208
aF0.0052082722450388242
aa(lp374
F0.0047070224821294778
aF0.0065070350742363874
aF0.014998768100919498
aF-0.00025476772292619594
aF-0.0045871480525134936
aF0.0012800752307598037
aF-0.001278438733003642
aF-0.0056323954804332116
aF0.0020596972241434131
aF0.0077082007550623678
aa(lp375
F0.0089697734094575429
aF-0.0021551154583597638
aF0.009719234724094564
aF0.0026737470298571382
aF-0.0085333319575985941
aF0
aF0.0040344794791863795
aF0.0053575214854036188
aF0
aF0.0037303416190777334
aa(lp376
F0.0073244486400856927
aF0.00072711699941770201
aF0.010483715342485884
aF-0.0015408341792698928
aF0.0063786320295104726
aF0.00010223983827722861
aF-0.0015332740604364742
aF-0.0040950374316646269
aF-0.0063733025622447811
aF-0.00072426758585399987
aag268
a(lp377
F0.0031877116850488633
aF-0.0019065426556797418
aF0.01209809732740001
aF-0.00031458667678807811
aF-0.0088105905516639611
aF0.0019047268366965899
aF-0.0098225441801976683
aF-0.0016134136822305136
aF-0.00064641528149265266
aF0.012289765796294106
aa(lp378
F0.0075538166585361133
aF0.0011534628652297959
aF0
aF0.00057603751099723536
aF-0.0028785882796996246
aF-0.0017320446261690655
aF-0.0040486466830293166
aF-0.0046457662604788615
aF-0.0029170966837479611
aF0.0029256310323302419
aag267
asg15
S'RSG'
p379
sg17
(lp380
g19
(g21
S'\x00\x00\x00\x00\x00\x00\x00\x00'
tRp381
ag19
(g21
S'\x00\xec\x9e\xe7\x82Y\x84?'
tRp382
ag19
(g21
S'I\xdc\x10\xdfF\x96\x91?'
tRp383
ag19
(g21
S',\x91\xc0\xf8\x86P\x90?'
tRp384
ag19
(g21
S'\xe5\x8e\x15\xe1\xf5V\x9b?'
tRp385
ag19
(g21
S'e\x1f\xe8\xf1\xca\x87\x98?'
tRp386
ag19
(g21
S'\x0fAM\x14\xb3\xc6\x99?'
tRp387
ag19
(g21
S'$\x18\x95\x1bD\xc8\x95?'
tRp388
ag19
(g21
S"k\x01'\x8b\x13\xf2\x92?"
tRp389
ag19
(g21
S'\x18\xbaZ\xf5\xdc\xd2\x91?'
tRp390
asg32
(lp391
F0.0089534506027641216
aF0.0009859843093486169
aF0.011229383307807731
aF-0.0023378737288998123
aF-0.0083967958465338798
aF0
aF-0.00019689331872098923
aF-0.0035454119857053503
aF-0.0039785160135270108
aF0.0075893948472139008
asg34
(lp392
g19
(g21
S'\x00\x00\x00\x00\x00\x00\x00\x00'
tRp393
ag19
(g21
S'"\xa2/%wUd?'
tRp394
ag19
(g21
S'\xed\xfa\xa4\x83\xe3Un?'
tRp395
ag19
(g21
S'bl\x84\x12k\x1ep?'
tRp396
ag19
(g21
S'\xf8\xfd\xcb\xb1\r\x86\x8d?'
tRp397
ag19
(g21
S'\xab\x1eB\xbf\xa2\xcd\x91?'
tRp398
ag19
(g21
S'\x14\xd5\x05\xb8\x8aB\x95?'
tRp399
ag19
(g21
S'7<\xf9\x9fG\xd8\x94?'
tRp400
ag19
(g21
S'K\xcaF\xe5\xf5N\x8f?'
tRp401
ag19
(g21
S'\xb2}a\xb9]\x1e\x95?'
tRp402
asg46
g19
(g21
S'\x19` \x8b2\xf5\xf2?'
tRp403
sa(dp404
g3
(lp405
(lp406
F0.0098250623118238765
aF0.0037318013788731354
aF0.0026557682169533461
aF0
aF0.0042379128178224659
aF-0.0065937858214207045
aF0.0090269523719933437
aF-0.0032890297438317277
aF-0.00052797295097355894
aF0.0096406967941415119
aa(lp407
F0.0077783152084668159
aF0.0012059519669820366
aF0.0074681130051256388
aF0.0043041866782040977
aF-0.0021428821972456049
aF0
aF0.01240756608909206
aF-0.017204802921644381
aF-0.0050359401803590749
aF0.018076642106175822
aa(lp408
F0.0098847322117150641
aF0.0097878973932046306
aF0.014539575838830514
aF0.011146529811992082
aF0.0047244347611542547
aF0.0031347596289672919
aF0.0093749705963170459
aF-0.010835866476302128
aF-0.0031299338226361412
aF0.0047096015433225951
aa(lp409
F0.0051331827964327973
aF0.0085357678838676662
aF-0.0052083374846806623
aF0.011561922400857627
aF0.0038817772360025238
aF-0.0022913878731624275
aF0.0079666991874152489
aF-0.0092566406313436995
aF-0.00043120277542508102
aF0.008268573608442048
aa(lp410
F0.0084745615875667871
aF0.0084033469066644179
aF0
aF0.0083333191350883247
aF0
aF0
aF0.013625809486547397
aF-0.0081966946668932308
aF0
aF0.0082644357231097271
aa(lp411
F0.013991735870546061
aF0.0089286328419476649
aF0.013944764574758807
aF0.0060830143816734171
aF-0.0021030891262193594
aF-0.0071127662372645149
aF0.0063678011668587961
aF-0.0047456037098211352
aF-0.0010596226662443727
aF0.011137685410513064
aa(lp412
F0.0078741774545194789
aF0
aF0
aF0.015624661080061015
aF0
aF-0.0076924669999249677
aF0.0077520997715981119
aF-0.015384286812654831
aF0
aF0
aa(lp413
F0.01261469368226246
aF0.0011324980508335819
aF-0.0027472794073406821
aF0.010047028608855051
aF0.00096259052628213119
aF-0.0036864869744614383
aF-0.0035392624782611668
aF-0.015821763590146195
aF-0.00016403160262954856
aF0.011648901871333892
aa(lp414
F0.0078255040772984129
aF-0.0013439422675042179
aF0.0049342343753282329
aF0.0052075380885650792
aF0.0072528884062842075
aF-0.00955182360871531
aF0.0077150840063409587
aF-0.00073609596873789338
aF0.001915395698467587
aF0.019411754202174638
aa(lp415
F0.022337907764545042
aF0.002314600457094705
aF-0.0072048677774826167
aF0.0099553402505953362
aF0.0044218884084231656
aF-0.0064202238505020109
aF0.011169565011177702
aF-0.0070294321067241924
aF0.0017468236208555993
aF0.014133636326483481
aasg15
S'ROST'
p416
sg17
(lp417
g19
(g21
S'\x00\x00\x00\x00\x00\x00\x00\x00'
tRp418
ag19
(g21
S'\xef\xc1\xff\xee\xfc\x99\x8d?'
tRp419
ag19
(g21
S'\xc3\xaa\x06\xcbH}\x91?'
tRp420
ag19
(g21
S'\x03\xfb\r$\xadT\x91?'
tRp421
ag19
(g21
S'\xe8\x8a\xdf\x9b\xb3\xc9\x96?'
tRp422
ag19
(g21
S'\xe6)\x8cNC\xe9\x94?'
tRp423
ag19
(g21
S'6\x85olL_\x92?'
tRp424
ag19
(g21
S'\xceT+\x18\xb7g\x94?'
tRp425
ag19
(g21
S'\x89A\xbf/G\xe8\x95?'
tRp426
ag19
(g21
S'%\xdd\xda)\x0e\x82\x96?'
tRp427
asg32
(lp428
F0.0096883416760858519
aF0.0060770990896705443
aF0.0069940867906533588
aF0.0099447832658179011
aF0.0043763988746483781
aF-0.0077809521387813994
aF0.0098808190050445107
aF-0.014909132084316438
aF-0.0012612643859372592
aF0.014996133070122661
asg34
(lp429
g19
(g21
S'\x00\x00\x00\x00\x00\x00\x00\x00'
tRp430
ag19
(g21
S'\x08\x0b\x93\xb9`$s?'
tRp431
ag19
(g21
S'\x00T,\x0f8\xcb{?'
tRp432
ag19
(g21
S'}\xba\x89(\xd8\xa4\x84?'
tRp433
ag19
(g21
S'9T\xb7\xce\xea\xfa\x88?'
tRp434
ag19
(g21
S'>\x1c\x94\xb25\x84}?'
tRp435
ag19
(g21
S'\x9e\xc4\x80\x94\r\xe6t?'
tRp436
ag19
(g21
S'O\xe2\x9b\x83\xca\x95\x82?'
tRp437
ag19
(g21
S'x\xc1S\xa5\xfb\xd8\x89?'
tRp438
ag19
(g21
S'\xbckPO]\xb0\x93?'
tRp439
asg46
g19
(g21
S':\xbc\xbe\x1c\xf6\xfd\xeb?'
tRp440
sa(dp441
g3
(lp442
(lp443
F0.022246728236571332
aF-0.034804692777810564
aF0.0024785979523898128
aF-0.010208856172489617
aF-0.017324758830268124
aF0.0042639427255416716
aF-0.0014697924596479466
aF0.0096493973785857119
aF-0.01271577101292668
aF0.0065628551370257669
aa(lp444
F0.015789473684210527
aF-0.025906735751295335
aF0.0053191489361702126
aF0.010582010582010581
aF-0.015706806282722512
aF-0.0053191489361702126
aF-0.0053475935828877002
aF0.010752688172043012
aF-0.010638297872340425
aF-0.010752688172043012
aa(lp445
F0.011674844110111292
aF-0.019645572372531627
aF-0.0023822518103315603
aF-0.0011237763973963185
aF-0.0063281868598406019
aF0.0018397565001940783
aF-0.0053679530779106614
aF0.0069592052070981021
aF-0.011424616311704661
aF0.0089885164234981742
aa(lp446
F0.019632469166876575
aF-0.027647471125523133
aF-0.0048235086271518502
aF0.0081632395876725314
aF-0.0065789979757085032
aF-0.011716735186792504
aF-0.017525773647571477
aF0.014952781084805387
aF-0.012923236312309029
aF-0.0015710395802838385
aa(lp447
F0.019010970302144308
aF-0.026471687218664094
aF0.0036255210296962394
aF0.0029673073676349522
aF-0.012091523336545444
aF-0.0015625390014632808
aF0.00065209963484597782
aF0.0095138273355730215
aF0.0050348438553427183
aF-0.0056518177431423783
aa(lp448
F0.017242978329931581
aF-0.016221688082330179
aF-0.0069476625007860856
aF0.0037313573065454807
aF-0.0026951738584763719
aF-0.0073618658763175606
aF-0.0040368004077209812
aF-0.00084830263428461712
aF-0.010566058138524454
aF0.0018116142423003324
aa(lp449
F0.0042625712560871573
aF-0.0079796471817390729
aF-0.011124452210671531
aF0.0043267711001862847
aF-0.012924357382398756
aF-0.0031424671463535885
aF-0.0035025639044757783
aF0.011247789281059522
aF-0.032672937403843673
aF0.00107798865927885
aa(lp450
F0.018296793367851134
aF-0.023521780751890049
aF0.00066915953313806007
aF0.0026746539635594683
aF0.00133381776145685
aF-0.0086580153590475745
aF-0.0047265758196733398
aF0.013568529067165963
aF0.0030120431808356388
aF-0.00066729002625184994
aa(lp451
F0.017886355866084232
aF-0.0092810289232810247
aF0.002872890254514465
aF-0.0026155124102978261
aF-0.0039959969110671687
aF-0.003134402804782806
aF-0.014966708233242637
aF0.0086823348570018756
aF-0.013924029769995939
aF0.0024389653247379873
aa(lp452
F0.01642460519164288
aF-0.023887538582887998
aF0.0071976527813731733
aF0.0028585091189065629
aF0.0059380201002911604
aF0.0021251425548304867
aF-0.0021206359012334742
aF0.012278765913264038
aF-0.0097970973396868527
aF0.010365081222901579
aasg15
S'LEN'
p453
sg17
(lp454
g19
(g21
S'\x00\x00\x00\x00\x00\x00\x00\x00'
tRp455
ag19
(g21
S'\x96|\x12-\x9b4\x8c?'
tRp456
ag19
(g21
S'?\xd0&p\x8c\xb1\x91?'
tRp457
ag19
(g21
S'\xdf\x0c(\x88\x8e3\x93?'
tRp458
ag19
(g21
S"'j\x1f\x89\xac\x8d\x90?"
tRp459
ag19
(g21
S't\xe6}\xd1\xd3.\x8e?'
tRp460
ag19
(g21
S'7h+_\xda.\x91?'
tRp461
ag19
(g21
S'\xfb\x10\xed\xf1\xfb\x19\x90?'
tRp462
ag19
(g21
S'\xf6\x01\x05~d\xf9\x92?'
tRp463
ag19
(g21
S'\x8f<\xc7y4\xf1\x91?'
tRp464
asg32
(lp465
F0.016914749661705007
aF-0.03526280771789761
aF-0.0011494022988505674
aF0.0034521748342422145
aF-0.011238463818278213
aF-0.0037114357756567115
aF-0.0053550639032580432
aF0.011235954793165779
aF-0.023379675384729737
aF0.003555368655021849
asg34
(lp466
g19
(g21
S'\x00\x00\x00\x00\x00\x00\x00\x00'
tRp467
ag19
(g21
S'\xa0qS\xa8\xcd\xf9\\?'
tRp468
ag19
(g21
S'\x8e\xfc\x8eHU3y?'
tRp469
ag19
(g21
S'\x9d;r\x12fbz?'
tRp470
ag19
(g21
S'\x92\x13~\x8en\\\x8a?'
tRp471
ag19
(g21
S'\xde\x8b\x82\xbf\xfb\x03\x8e?'
tRp472
ag19
(g21
S'\x1b@\xa0\x9f\xea?\x8f?'
tRp473
ag19
(g21
S'\xb89\xd5"=\x00\x95?'
tRp474
ag19
(g21
S'V\tw\xe8\x1d\xf9\x93?'
tRp475
ag19
(g21
S'\xf6\xfa\x17g \x94\x93?'
tRp476
asg46
g19
(g21
S'n\xb9!\xfe\x92u\xf1?'
tRp477
sa(dp478
g15
S'SPXLINE'
p479
sg34
(lp480
g19
(g21
S'\x00\x00\x00\x00\x00\x00\x00\x00'
tRp481
ag19
(g21
S'\x1a-/\x1e\x8b1=?'
tRp482
ag19
(g21
S'PP\xf7\x18\xe6uA?'
tRp483
ag19
(g21
S'\xe7\xff\xa7G\xb2\xf9D?'
tRp484
ag19
(g21
S'\xc5\xf4#\xe9\xfe\x98U?'
tRp485
ag19
(g21
S'$\x8b"\x96#\xb7a?'
tRp486
ag19
(g21
S'\xc0\xcdaN@\xaap?'
tRp487
ag19
(g21
S'r$\xad\xde\x87gm?'
tRp488
ag19
(g21
S'T\xfeffC\xe2k?'
tRp489
ag19
(g21
S'\xb6\x8a\xf4\xa6\x95Ps?'
tRp490
asa.