(lp1
(dp2
S'matches'
p3
(lp4
(lp5
F-0.015325904129795506
aF0
aF-0.0038914104704910468
aF-0.015625047002687614
aF0
aF0.0072233821139801322
aF0.0079677020040615863
aF-0.01185768133577551
aF-0.004000194140806281
aF-0.0040154443933128059
aa(lp6
F-0.007032356390813641
aF-0.016052885544111349
aF0.005438269243956839
aF-0.017181083051930123
aF-0.00275166985280783
aF0.0014608173136633363
aF0.00016204288130830673
aF-0.0082644427538629793
aF0.0055555652658957899
aF-0.00016253371073849315
aa(lp7
F-0.021704219689444661
aF-0.004313831121596101
aF0.0068083098432297892
aF-0.0086471134508599272
aF0.0095532287556135669
aF0.0032915540638399771
aF0.0065616108091060355
aF-0.017926311359781979
aF0.0022818179931292279
aF0.0024831688370995655
aa(lp8
F-0.017391239982962065
aF-0.008849410054547811
aF-0.0044643258128727126
aF-0.017937150224413941
aF0
aF0.0045660153524402928
aF0.018181984461738427
aF-0.013392977438618343
aF0
aF-0.013574550781136136
aa(lp9
F-0.013071911511699903
aF-0.0066225248142051871
aF0.0066666750350530685
aF-0.016930187706784949
aF0
aF-0.0069445971245773678
aF0.0069931618160165802
aF-0.013889194249154736
aF0.007042410532444786
aF-0.0069931618160165802
aa(lp10
F-0.01566573299824308
aF-0.018567711462770562
aF-0.0027026413689912503
aF-0.010840165134347018
aF0.0054795321673301494
aF0.019073541775384169
aF0.008021407449182406
aF-0.0053051169820164702
aF0
aF-0.0026666061614963534
aa(lp11
F-0.01313602759530704
aF-0.0037067795511764334
aF0.0052426542237736986
aF-0.010598881393978698
aF-0.002550620298666735
aF0.008694137797952594
aF0.0064221998219238501
aF-0.0089000591854079651
aF0.007793953307005214
aF0.0036987453294822521
aa(lp12
F-0.0053191284750705621
aF-0.013369037726570325
aF0.010840138336890071
aF-0.01340480948204876
aF0
aF0.0054347616366841106
aF0.010810840392927953
aF-0.016042789020871012
aF0.0081521781851199952
aF0.0053908147542445356
aa(lp13
F-0.013071114882893992
aF-0.0066231050171400565
aF0
aF-0.01333353026721663
aF0.0033787653478751316
aF0.012916198345306431
aF0.010067015241689337
aF-0.023255806332798928
aF0.0068022634959114927
aF-0.003377736132046364
aa(lp14
F-0.013452954081685673
aF-0.0090909359990115225
aF0.0045871696653501486
aF-0.013698670868586121
aF-0.0092592871731871831
aF0.014018734245968794
aF0
aF-0.0092166175190002576
aF0
aF-0.0046511768777959921
aasS'current'
p15
(lp16
F-0.021711537930635155
aF-0.015875587234731849
aF0.00411522633744856
aF-0.01754098360655738
aF-0.00050055064241613688
aF0.0083472451303090098
aF0.0082781454212534633
aF-0.014614186712177736
aF0.0016664389823841327
aF-0.0021627183137128887
asS'future'
p17
(lp18
cnumpy.core.multiarray
scalar
p19
(cnumpy
dtype
p20
(S'f8'
I0
I1
tRp21
(I3
S'<'
NNNI-1
I-1
I0
tbS'\x00\x00\x00\x00\x00\x00\x00\x00'
tRp22
ag19
(g21
S'\x88BLEe<f?'
tRp23
ag19
(g21
S'\xaa\x9e\xa4&\rD\x88?'
tRp24
ag19
(g21
S'\r\xdc\x82Ki\x1e\x90?'
tRp25
ag19
(g21
S'\xab)\x0f\xff\xf8#\x97?'
tRp26
ag19
(g21
S'o\xec\x99\xa8\xad\x0e\x99?'
tRp27
ag19
(g21
S'\x133\xb7S\xbcT\x97?'
tRp28
ag19
(g21
S'\x86\xb35F\xbd\xe1\x93?'
tRp29
ag19
(g21
S'\x8dwp\\\xeeI\x92?'
tRp30
ag19
(g21
S' \xf2\x8e\x862\x9c\x89?'
tRp31
asS'stDev'
p32
(lp33
g19
(g21
S'\x00\x00\x00\x00\x00\x00\x00\x00'
tRp34
ag19
(g21
S'\x01\xc4\x8d\xd3\x94\xacw?'
tRp35
ag19
(g21
S'\xca\xe7"\xd2H\xe5\x90?'
tRp36
ag19
(g21
S'$\xfb}f\x93\x8e\x9e?'
tRp37
ag19
(g21
S'\xd6\xae\x07\xcc"\xee\xa1?'
tRp38
ag19
(g21
S'\xddl\x81\xdbtZ\xa2?'
tRp39
ag19
(g21
S"@'\xe5\xc7\x8a\x06\xa5?"
tRp40
ag19
(g21
S'4r\xcb\xf1\xa3\n\xa8?'
tRp41
ag19
(g21
S'\xa2\xd3\xf7\xf3Jc\xa7?'
tRp42
ag19
(g21
S'#G`\x8bo\x0c\xab?'
tRp43
asa(dp44
g3
(lp45
(lp46
F0.00021739621292072797
aF-0.00086959695769765766
aF-0.010008666300530378
aF-0.0076922834503825267
aF0.0095238495272138325
aF0.0048266005090097062
aF0.0043668201654509919
aF-0.005217430914151752
aF0.008522836539008375
aF0.00433360179363757
aa(lp47
F0.0053409872083300487
aF-0.0053126126123248085
aF-0.0065871396348653197
aF-0.012903164384323255
aF0.010166976701010478
aF-0.0039540171128047341
aF0.0043306063317297555
aF-0.0061085267961871175
aF0.013015212876852977
aF0.0058886197202939715
aa(lp48
F-0.00060733600171602022
aF0.0027347057219342785
aF-0.0093939689865398593
aF0.00030596359152312982
aF0.0094800527265407886
aF-0.012117479482001219
aF0.0052130801595445227
aF-0.0064063082082850007
aF0.0079828687643618123
aF0.00426436718854917
aa(lp49
F0
aF0
aF-0.0045869619547455626
aF-0.004608871653044448
aF0.013889082913851295
aF-0.009132035609580598
aF0.0046080991301392076
aF-0.0045869619547455626
aF0.013824297390417623
aF0.0045460260371623061
aa(lp50
F0.0021898931207043077
aF0.0026452373712988688
aF-0.011011692605137392
aF-0.013569915318567573
aF0.017283882834621699
aF-0.0072815219631398075
aF0.0071021045117101436
aF-0.0012716765687832026
aF0.010417892862200934
aF0.00068733650696748588
aa(lp51
F0.0033482107823903941
aF0.011123491511441465
aF-0.011001120639392835
aF-0.010011113030578297
aF0.014606759104708622
aF-0.012181571346200211
aF0.008968567005849859
aF-0.0055555170352553787
aF0.012290456380192818
aF0.0022074708263158539
aa(lp52
F-0.0008968540529076843
aF-0.001795375421213058
aF-0.0057553972219033592
aF-0.0037988168737170501
aF0.0079898041529987158
aF0.00054048872940814835
aF0.0072019799543460777
aF-0.0066142051638638198
aF0.024833553925456279
aF0.0042141866738088021
aa(lp53
F0
aF0
aF-0.0070427121920806652
aF-0.0070926637817708719
aF0.0071433290127408114
aF-0.0070926637817708719
aF0.0071433290127408114
aF0.0070926637817708719
aF0.0070427121920806652
aF0.0069939053110861151
aa(lp54
F-0.0024114336087378862
aF0.0002417681216716468
aF-0.0038665919089627587
aF-0.011159703289549548
aF0.0061334591350651222
aF-0.012923660624798201
aF-0.002470308379802502
aF-0.0059435836281002867
aF0.0087195557369654769
aF-0.00024704779022662493
aa(lp55
F0.0040203787728081046
aF0.0034033963785595886
aF-0.0023944025452119892
aF-0.0073999698344552429
aF0.0078581997458340332
aF0.0017991195172670968
aF0.0071843161430093514
aF-0.0041608493482608675
aF0.014524480614323543
aF-0.00098069891342293983
aasg15
(lp56
F-0.0027580609651808234
aF0.0010057157224272017
aF-0.0097957550268628034
aF-0.010061681154857983
aF0.0086265287217880821
aF-0.0054195869394389942
aF0.0072371734500768668
aF-0.0061707775273683683
aF0.012588270817385479
aF0.0031919108813462443
asg17
(lp57
g19
(g21
S'\x00\x00\x00\x00\x00\x00\x00\x00'
tRp58
ag19
(g21
S'\xf40)\xb4\xe2\xd0p?'
tRp59
ag19
(g21
S'\xcd\xcc\x03\x99\x8a \xba\xbe'
tRp60
ag19
(g21
S'\x9a\x1f\xb7\x16\xd4\xe3 ?'
tRp61
ag19
(g21
S'S!\x10\xfc~~e\xbf'
tRp62
ag19
(g21
S'&r\xa7\xb7w1d?'
tRp63
ag19
(g21
S'J\x9b[\xb4s\xb0g?'
tRp64
ag19
(g21
S'`n\x19\xc8\xf5-\\?'
tRp65
ag19
(g21
S'z\xf1\x89Kj\xe3F?'
tRp66
ag19
(g21
S'\xe0\xf5\xa3f>+j\xbf'
tRp67
asg32
(lp68
g19
(g21
S'\x00\x00\x00\x00\x00\x00\x00\x00'
tRp69
ag19
(g21
S'ZN\x91\xd1\xac\xb9\x8a?'
tRp70
ag19
(g21
S'\xb6<\xfb\x84\xd0\x80\x93?'
tRp71
ag19
(g21
S',1\x9b\x1f\t\x9c\x99?'
tRp72
ag19
(g21
S'e\x939\xfb\xca\x97\x98?'
tRp73
ag19
(g21
S' mM\xa4\x83\xce\x9b?'
tRp74
ag19
(g21
S'\\\x94+\xa6\xfa\xa1\x9c?'
tRp75
ag19
(g21
S'\xf8\xab\xb4\xb0\xe3>\xa1?'
tRp76
ag19
(g21
S'\xc6\x94\xf2\x8c\xbe\xef\x9f?'
tRp77
ag19
(g21
S'\xa6\xf6\xc1\xc6+\xb2\xa0?'
tRp78
asa(dp79
g3
(lp80
(lp81
F-0.0044356586495584221
aF-0.0020791966430345294
aF-0.0048615737311370972
aF-0.0069791026703904576
aF-0.0059236661143874996
aF-0.0074740479469258825
aF-0.0025440046065958273
aF-0.0015302396765977096
aF0.0098089183732073624
aF0.0002023390910603305
aa(lp82
F-0.0036339118538659446
aF0.00022800601437688979
aF0.0027347103430414499
aF-0.012272746461250188
aF-0.0046019412964504345
aF-0.0062412763116922038
aF0.0020935351721672649
aF-0.0034819248358215209
aF0.0069880835876263729
aF-0.0046264253475324793
aa(lp83
F-0.0029321526221488081
aF-0.0034307723079761536
aF-0.004918033208223249
aF-0.014003294297375794
aF-0.0025062658784247693
aF-0.0072026599536528808
aF0.0043866645414761991
aF-0.0041995640563720141
aF0.001183852862962113
aF0.0025337831994068994
aa(lp84
F0.004291865911693094
aF0.00071226642242998197
aF-0.012099614963501874
aF-0.016570670456102433
aF-0.012454182893855794
aF-0.01038575438896207
aF0.0022488472398766238
aF-0.0014958416069683548
aF0.0074905681908938497
aF-0.0089218984459827136
aa(lp85
F0.0048602677800361101
aF-0.0012091899580161385
aF-0.0072639232110994932
aF-0.0036585369369243666
aF-0.002447980652253504
aF-0.0036809819509775431
aF0.0024630544262054998
aF-0.0061425067371067496
aF0.011124846571808901
aF-0.0024449880105810568
aa(lp86
F0
aF-0.002584600322459153
aF-0.0077740031708015038
aF-0.0070514648825176036
aF-0.011572824090142788
aF0.0024032017886179702
aF0.0045284513958777136
aF-0.0039776648595237305
aF0.0095845983616885816
aF0.0015823047767698857
aa(lp87
F-0.0010547810549674465
aF-0.0022289360708655924
aF-0.0063492235752726041
aF-0.0067447512147368821
aF-0.0070288800787015769
aF-0.0020395686061916319
aF0.0013327199328526825
aF0.00060490098999428784
aF0.0018138041565963275
aF-0.0021726005274128215
aa(lp88
F0
aF0.0018036549344655191
aF-0.012612967992191471
aF-0.014597493328689436
aF-0.0074084277167613902
aF-0.0093284744692315857
aF0.0018849543535520807
aF0.0075171904026033907
aF0.013060073720817078
aF-0.011048410065869698
aa(lp89
F-0.0040681742258172858
aF0.0017506476452807541
aF-0.015922334841247311
aF-0.013220230699355849
aF-0.0047990150447419205
aF0.0038175355817906234
aF0.0054043306830489097
aF-0.0015926249400791445
aF0.0095712759176698574
aF0.0073079066275820561
aa(lp90
F-0.00078912513747555211
aF-0.0017112622375878115
aF-0.016218307794958524
aF-0.011392546122137871
aF-0.004202889907644395
aF-0.0025867224508802616
aF0.015014984921712703
aF-0.010220576810612204
aF0.010733718863926819
aF0.00026889914026686194
aasg15
(lp91
F-0.00051374261494999043
aF-0.0010280390645077519
aF-0.012091510473154356
aF-0.014062525309243571
aF-0.0052826464531789191
aF-0.0061072756240041657
aF0.0018701576275714743
aF-0.0029333599999999175
aF0.0096282698483088191
aF-0.00052980132450339409
asg17
(lp92
g19
(g21
S'\x00\x00\x00\x00\x00\x00\x00\x00'
tRp93
ag19
(g21
S'@\xaf\xbd=\xfe\xfe7\xbf'
tRp94
ag19
(g21
S'\xa0\x87\x1eF!\xe2:?'
tRp95
ag19
(g21
S'(\xa0\xff\x00PUM?'
tRp96
ag19
(g21
S'+\x9f\x07\xf3a\xb3S\xbf'
tRp97
ag19
(g21
S'*\xc7 j\xbc\xf8S?'
tRp98
ag19
(g21
S'\n \xffM\xfb\xf2m?'
tRp99
ag19
(g21
S'p\xf1\xed\xbf\x83+{?'
tRp100
ag19
(g21
S'0\x80^\x9e\xb6\x86t?'
tRp101
ag19
(g21
S'\xab\xccz\x03\x8f\xa6c?'
tRp102
asg32
(lp103
g19
(g21
S'\x00\x00\x00\x00\x00\x00\x00\x00'
tRp104
ag19
(g21
S'\xd7PS\x8f\x9b\xb0u?'
tRp105
ag19
(g21
S'SnM\xac\n\xd2\x85?'
tRp106
ag19
(g21
S'\x08\xb7$\xc7\xdeu\x8d?'
tRp107
ag19
(g21
S'\xf5\x08Q\xc6\xa8\xe8\x92?'
tRp108
ag19
(g21
S'&Kz\xbf\x9d\xbc\x93?'
tRp109
ag19
(g21
S'\xba\x83t\xeb1\x9d\x91?'
tRp110
ag19
(g21
S'\xfbOX\x8f\x1a\x11\x92?'
tRp111
ag19
(g21
S'!h\xa4\xbfU"\x91?'
tRp112
ag19
(g21
S'\x9e~\xcb\xba\x135\x97?'
tRp113
asa(dp114
g3
(lp115
(lp116
F0.0066788321130091229
aF0.0094490924579078723
aF-0.019119685131414939
aF-0.0012183083838578101
aF0.015043757354718145
aF0.00060372720547580887
aF0.0096540527990395704
aF-0.017729053729922825
aF0.0093287026615554991
aF0.0026120347773422202
aa(lp117
F0.0028176656315035955
aF0.014814761387010027
aF-0.018625672387948947
aF-0.0010259409861364237
aF0.036456953429648588
aF-0.0039633398386696109
aF0.017159986775788991
aF-0.012958508535228477
aF0.021550722572296219
aF0.00096985567537723801
aa(lp118
F-0.0018114812964254521
aF0.0063519928667072146
aF-0.018485246219823216
aF0.0029859570938368233
aF0.020838024184764638
aF-0.0026918464743873609
aF0.0031491514415835824
aF-0.0089686467173644945
aF0.01787324158031257
aF0.0060011070672035356
aa(lp119
F0.002887625698558321
aF0.005326855180053016
aF-0.011313212978769206
aF-0.0069525425149974413
aF0.0094807750495274814
aF-0.007513311951051929
aF0.0061144026324174228
aF-0.025466689673117295
aF0.017668933428871818
aF-0.0039393692765661249
aa(lp120
F0.005950487475260194
aF0.0097870028804427755
aF-0.011609283227845029
aF0.0032327084021996498
aF0.01364128560962532
aF-0.0074176563953060473
aF0.01430558153688187
aF-0.012525019152097265
aF0.011085060686171162
aF-0.0014758511417414055
aa(lp121
F-0.013966474571993386
aF0
aF-0.025495775381925632
aF0
aF0.017441999387494404
aF0.0028571054655027578
aF0.019942938455047923
aF-0.016759734432619602
aF0.011363666748248605
aF0
aa(lp122
F0.0063409313798982641
aF-0.00023333565508117243
aF-0.018674129520499672
aF-0.00071367350240435852
aF0.0095215934207882671
aF-0.0018863006857339462
aF0.0092133037189944464
aF-0.020131105816707795
aF0.0059722886756114688
aF-0.00094988742459445666
aa(lp123
F0.0019493342147475429
aF0.0058365473626300311
aF-0.013539676257732445
aF-0.0019607226000981528
aF-0.0019646530982108017
aF-0.0019685205582244091
aF0.023668655377345332
aF-0.013487487141233509
aF0.013671886535071691
aF0
aa(lp124
F0
aF0.0092585748078060862
aF-0.01834752088137866
aF0
aF0.0046720588253340231
aF0
aF0.018604748879373887
aF-0.013698341027463083
aF0
aF0.0046297737246725097
aa(lp125
F-0.0004409256567449226
aF0.0017644011315529526
aF-0.018493965358908661
aF0.0056078966308472228
aF0.024313983058263388
aF-0.015026110540837152
aF0.027415486444949521
aF-0.029481439660409527
aF0.014190749835071776
aF0.0056842550165601821
aasg15
(lp126
F-0.0002623131323809844
aF0.011017891159965577
aF-0.019979267774279341
aF-0.0037066190097962159
aF0.020728115314161074
aF-0.0020827388700858174
aF0.018262378384430979
aF-0.024340174848582401
aF0.016018827940187604
aF-0.00077536833226601171
asg17
(lp127
g19
(g21
S'\x00\x00\x00\x00\x00\x00\x00\x00'
tRp128
ag19
(g21
S'/l\xf3\x95\x16ot?'
tRp129
ag19
(g21
S'\xb8\xd2\xdf\x12\xfc\x86X?'
tRp130
ag19
(g21
S'\xc3\xdc\x10\xbc0\xaaC\xbf'
tRp131
ag19
(g21
S'\xb1\xef\x1410\xf3u\xbf'
tRp132
ag19
(g21
S'\x96#\xdf-\xbfp^\xbf'
tRp133
ag19
(g21
S'@\x8d\xc2\xdd\xfc\x80{\xbf'
tRp134
ag19
(g21
S'M\\\xdb&\xab\x17i\xbf'
tRp135
ag19
(g21
S'\x1a\xce!\x83\x1b`\\\xbf'
tRp136
ag19
(g21
S'Z)h\xd7\xb2-C?'
tRp137
asg32
(lp138
g19
(g21
S'\x00\x00\x00\x00\x00\x00\x00\x00'
tRp139
ag19
(g21
S'\xdb\xab[\xb4\xd2s|?'
tRp140
ag19
(g21
S'\x99\x9b\xdf\xc8\x7fZ\x82?'
tRp141
ag19
(g21
S'\x0b\xe9O\xb9PU\x92?'
tRp142
ag19
(g21
S'k\x99)\xe2\xb1\x98\x9b?'
tRp143
ag19
(g21
S';X\xaf\x11\xc2\x07\x9c?'
tRp144
ag19
(g21
S'\xb7A\xea|\x12g\x97?'
tRp145
ag19
(g21
S'\xeao\x1d\xc5b\xcb\x98?'
tRp146
ag19
(g21
S'DlG\xd5\x8cj\x9c?'
tRp147
ag19
(g21
S'\xd2\xb5\x91\xd8K\xca\xa0?'
tRp148
asa(dp149
g3
(lp150
(lp151
F0.013339044833377027
aF-0.0080678958551150502
aF-0.011986323509712895
aF-0.0082322612894061287
aF0.0024028142440625667
aF-0.0019612221124969014
aF0.0037118316576525787
aF-0.0032630309374870152
aF0.015058903178328382
aF-0.0027950289291160633
aag55
a(lp152
F0.0024017417130175423
aF-0.0091482600736803119
aF-0.0068147446072082292
aF-0.0032550986850490697
aF-0.00045046949334822696
aF0.0049571351574460021
aF0.004484320741132382
aF0.0022321940185139016
aF0.010913082946364634
aF0.0013219330294153499
aa(lp153
F0.009992673244149361
aF-0.0041022683908022552
aF0.0024230420993389011
aF-0.0062847180878495652
aF0.0070542653398206513
aF0.0016908243608451986
aF0.0089220913906797403
aF-0.0047801420875766996
aF0.012968335266095631
aF0.0028449150884616282
aa(lp154
F0.0070860066859970428
aF-0.00014664527741717597
aF-0.010115831752069065
aF-0.0041468996192306614
aF0.0047590491496558402
aF-0.00014795386195863328
aF-0.0011843021910519296
aF-0.0072624518578417669
aF0.014033971545522031
aF0
aa(lp155
F0.0031788184399373031
aF-0.010624421815871369
aF-0.0020723599521939523
aF0.0041532442364854948
aF0.0039481819071468622
aF0.0052434122425004436
aF0.011177319136399489
aF-0.0029476677790879081
aF0.012564664947629423
aF-0.00237228400431698
aa(lp156
F0.0020144212584196773
aF-0.0073714002855426617
aF0.0062447077586340579
aF-0.00075474700373576089
aF0.005539200020626983
aF0.0015858666656031095
aF0.012749987810669057
aF-0.0034559166380901084
aF0.010816592501529292
aF-0.0034308004969495769
aa(lp157
F0
aF-0.0076921920972694404
aF0.014536262849095007
aF-0.0047776257639723227
aF0.0028794574052351807
aF-0.0028711899361118067
aF0.013436347311954774
aF-0.005682306768015493
aF0.014284768439653926
aF-0.00093765765729301044
aa(lp158
F0.00037280223832881527
aF0
aF-0.0039764860515591124
aF-0.00024968753648155109
aF0.0026207409213110005
aF0
aF0.0019916164338743951
aF-0.0067081557459272006
aF0.013381725254391463
aF-0.00061697524596982238
aag47
asg15
(lp159
F0.0029839915046752097
aF-0.0075253355212382012
aF-0.0092282781041474957
aF-0.0084835845809632486
aF0.0028719917767010168
aF0.0011335958407397938
aF0.012693623134202163
aF-0.0058258756004303689
aF0.013555072646441707
aF0.00081760791491222653
asg17
(lp160
g19
(g21
S'\x00\x00\x00\x00\x00\x00\x00\x00'
tRp161
ag19
(g21
S'\xaef;HF\xcda?'
tRp162
ag19
(g21
S'\xc6\xdc\xf7?\xc4\x14F\xbf'
tRp163
ag19
(g21
S'b\xb4\x82V\x9d\x98q?'
tRp164
ag19
(g21
S'\x8e\xa2\x0ec\xad\xc0n\xbf'
tRp165
ag19
(g21
S'Z\x8a\x00\x906\x06~\xbf'
tRp166
ag19
(g21
S'\xea\xb2E\xd2\xba\xa5\x84\xbf'
tRp167
ag19
(g21
S'S\x0c\x95\x88,\xbf\x84\xbf'
tRp168
ag19
(g21
S'D~\xe7\x11x\x95\x89\xbf'
tRp169
ag19
(g21
S'#!q\x98\x83gu\xbf'
tRp170
asg32
(lp171
g19
(g21
S'\x00\x00\x00\x00\x00\x00\x00\x00'
tRp172
ag19
(g21
S'\x1c\x10u\xf5\xf9T\x82?'
tRp173
ag19
(g21
S'\xa8\xa5L\xfc\x01+\x89?'
tRp174
ag19
(g21
S'\xaac\xbe\xc9v\xc8\x89?'
tRp175
ag19
(g21
S'\x7f~"\xe8k\x8c\x94?'
tRp176
ag19
(g21
S'j\x07\x85B\x10\xa5\x9a?'
tRp177
ag19
(g21
S'\xd37=\xf4\x1d\xf5\x9f?'
tRp178
ag19
(g21
S'\xcbz\rxf2\xa1?'
tRp179
ag19
(g21
S'u\xc2\x98Ap\x11\xa0?'
tRp180
ag19
(g21
S'OE\x90=8\\\x9f?'
tRp181
asa(dp182
g3
(lp183
(lp184
F0.010761582771673316
aF-0.0040949810453827914
aF-0.023848710391806454
aF-0.008424552442788568
aF-0.011894653845450324
aF0.0051589673313401745
aF-0.0068434736905753609
aF-0.016365092934563969
aF0.019264472683992964
aF-0.0077319895829323845
aa(lp185
F0
aF-0.0070927523547176527
aF-0.028569560549893271
aF0.0073535052696825859
aF-0.014599651922021058
aF0
aF-0.0074084540298908
aF-0.007463271190359418
aF0.015039262152594107
aF0.007407979888832821
aa(lp186
F0.0053049953446067475
aF0.0013192612137203667
aF-0.025911286780851993
aF0.0072137060414788163
aF-0.017457430617726033
aF0.0036446467587859469
aF-0.016341397351729441
aF-0.011536686663590217
aF0.0098038748832866389
aF-0.0013869163840460699
aa(lp187
F0.0065629383347960155
aF-0.0043467646746816026
aF-0.017705513292918456
aF-0.012345731219971692
aF-0.012499997914767153
aF0.010379750712998377
aF-0.012277672692739296
aF-0.0078639202294892106
aF0.0081820032213209843
aF-0.0032969983026778066
aa(lp188
F0.0037051734442772855
aF-0.0072463495658511862
aF-0.026993512918420101
aF0.0055201555408307436
aF0.0035191440946066425
aF0.0085566137108063281
aF-0.011821960728179074
aF-0.010415270496188588
aF0.0075380175661504956
aF0.0011293337735367385
aa(lp189
F0.0087745346061428448
aF-0.0035596214227210346
aF-0.011576367889503178
aF-0.00093750271739137167
aF0.0021895323120576576
aF0.0096889963153570079
aF-0.0054565465297328761
aF-0.014351344594594619
aF0.01103675442816668
aF0.0032410046006903664
aa(lp190
F0.017360755377962441
aF-0.0034129005441167399
aF-0.023972118264285101
aF-0.0070172715248748548
aF-0.0035345181924256279
aF0.0070930835951676157
aF-0.0070431261128776667
aF-0.0035460282711697777
aF0.017192978251937722
aF0.010563130082026874
aa(lp191
F0.0095239361485400034
aF-0.0047170432554947683
aF-0.004739399206557156
aF0.0047619680742700017
aF-0.014217984190904333
aF0.0048077558025515629
aF-0.009569503767835965
aF-0.0048307644312151985
aF0.019417293200209254
aF0
aa(lp192
F0.006023755227514015
aF0
aF-0.017963754355780567
aF0.0060972157534955121
aF-0.018181396884263758
aF0.0061724894914122457
aF-0.012269957961541438
aF-0.012422380042444524
aF0
aF0.0062896826532773909
aa(lp193
F0.0049351332117315667
aF0.0073783081568106106
aF-0.024390475602399625
aF-0.0075057530582900676
aF-0.010070817847209432
aF0.010173271006425439
aF-0.0025148429694769343
aF-0.0075750248757849789
aF0.002540427148544027
aF0.0076135023099177948
aasg15
(lp194
F0.0050747537145684673
aF-0.0040470917380417111
aF-0.026354482036094702
aF-0.0022258317457106275
aF-0.015774975165418377
aF0.0097138217185544183
aF-0.008177367987423868
aF-0.011518373199000126
aF0.019012159465106197
aF0.0039321551006243662
asg17
(lp195
g19
(g21
S'\x00\x00\x00\x00\x00\x00\x00\x00'
tRp196
ag19
(g21
S'+F\x8c\x91\xc04w?'
tRp197
ag19
(g21
S'\xc7\x03\xf1\x13wmv?'
tRp198
ag19
(g21
S'\xb3\x08\x86L\xd2\x05\x7f?'
tRp199
ag19
(g21
S'\xa3\x9eZv\x17\x15\x83?'
tRp200
ag19
(g21
S'\x9a\x90rfqW}?'
tRp201
ag19
(g21
S'\xa6-25S\x05\x82?'
tRp202
ag19
(g21
S'\xba\xca\t\xcc\xe3\xd0o?'
tRp203
ag19
(g21
S'c\xd36\xf9YS\x86?'
tRp204
ag19
(g21
S'+\x971h\xef\xfc\x82?'
tRp205
asg32
(lp206
g19
(g21
S'\x00\x00\x00\x00\x00\x00\x00\x00'
tRp207
ag19
(g21
S'\n\xf0\xa9\x06\xf4\x88\x8a?'
tRp208
ag19
(g21
S'^\xf6+\x95\x07G\x91?'
tRp209
ag19
(g21
S'\x92aU\xa9\xfe\xba\x92?'
tRp210
ag19
(g21
S'\xa2Q\x8aY\xa0\xf4\x98?'
tRp211
ag19
(g21
S'\x14\xc98D\x16\x85\x9a?'
tRp212
ag19
(g21
S'\xe1/c\x8e\xbc\x7f\xa2?'
tRp213
ag19
(g21
S':\xf5\xd4\xe4\r\xf1\xa2?'
tRp214
ag19
(g21
S'W\xabc\x07z\xdb\xa5?'
tRp215
ag19
(g21
S'\xc8\xb7[\xb47\x00\xa7?'
tRp216
asa.