(lp0
(dp1
S'matches'
p2
(lp3
(lp4
F-0.000346860908775512
aF-0.0017349063150590115
aF-0.009037191518943275
aF-0.004910522623640936
aF-0.008812125174052691
aF-0.001422510617976158
aF-0.012108262108262104
aF-0.011175198269646674
aF0.01640535909588049
aF-0.02116205240896893
aa(lp5
F0.0021008630315145784
aF-0.00041930157687529874
aF-0.023489900826426657
aF-0.00730240339700624
aF-0.021202906419816942
aF-0.009725979426956678
aF-0.0062499521742150985
aF0.00044925167529254986
aF0.020206456481984224
aF-0.03741186029601132
aa(lp6
F-0.002697295455935099
aF0.0018030702741914982
aF0.0033745123685743296
aF-0.00022417339833094997
aF-0.001569861687097377
aF-0.004043113177873755
aF-0.016238194522573475
aF-0.009170058209737418
aF0.013882435449854642
aF-0.031492494532009176
aa(lp7
F0.014925288138415536
aF0.004902062267567593
aF-0.01951221202774935
aF0.0
aF-0.009950257548899602
aF0.005025030941575979
aF0.0
aF-0.010000009867586921
aF0.010101020168949107
aF-0.01156027270063035
aa(lp8
F-0.00926178825113268
aF0.0
aF-0.009342145749923952
aF-0.018871261228992995
aF-0.009611628011239326
aF0.009704907976593654
aF-0.019228745767178028
aF-0.009805668461869222
aF0.029702662471029245
aF-0.028845863523116733
aa(lp9
F0.005850073382815039
aF0.002726240812257564
aF-0.018307016023476418
aF-0.0038773807079496175
aF-0.011121453265414536
aF-0.005623236545938631
aF-0.02016963671116512
aF0.0013466583918793258
aF0.011719511243915981
aF-0.008735257516338569
aa(lp10
F0.010230901513905499
aF0.024244316690372386
aF-0.021273376234785035
aF-0.009643423396841698
aF-0.008346118372590885
aF0.0017143658414685862
aF-0.00917997996231358
aF-0.005496199998904512
aF0.026527709977261546
aF-0.0050761613619647
aa(lp11
F0.011494206860266833
aF0.017045481315385132
aF-0.01117313984371268
aF-0.02259896640110231
aF-0.011560648203092423
aF0.011695859925119375
aF-0.011560648203092423
aF-0.011695859925119546
aF0.029585777912460164
aF-0.02298860434704713
aa(lp12
F0.003389762109366019
aF0.002533805867660991
aF-0.0075822057655244735
aF-0.010186797513816752
aF-0.011149128480833282
aF0.002601930702782272
aF-0.023356554188995026
aF-0.007085672956378846
aF-0.0017842394988988118
aF-0.020554296611464105
aa(lp13
F0.00862157593609609
aF0.017091018563074423
aF-0.02100594543068833
aF-0.004292284838212046
aF0.012932363904144137
aF0.0
aF-0.012767253140475185
aF-0.008620778970304142
aF0.0
aF-0.03043711041190028
aasS'symbol'
p14
S'AGN'
p15
sS'stDev'
p16
(lp17
cnumpy.core.multiarray
scalar
p18
(cnumpy
dtype
p19
(S'f8'
p20
I0
I1
tp21
Rp22
(I3
S'<'
p23
NNNI-1
I-1
I0
tp24
bS'\x00\x00\x00\x00\x00\x00\x00\x00'
p25
tp26
Rp27
ag18
(g22
S'\x9ex_U\xed\xd0\x8e?'
p28
tp29
Rp30
ag18
(g22
S'\x9e\xf1\x08~^C\x9a?'
p31
tp32
Rp33
ag18
(g22
S"A'\xe5\xf3\x9cX\x9a?"
p34
tp35
Rp36
ag18
(g22
S'\xf3\xa4Y\xe54\xcf\xa0?'
p37
tp38
Rp39
ag18
(g22
S'&\x85G\x1a5B\xa0?'
p40
tp41
Rp42
ag18
(g22
S':\x15\xc7$\x8e-\xa2?'
p43
tp44
Rp45
ag18
(g22
S'\x10\x03\xf8\x8a]n\xa4?'
p46
tp47
Rp48
ag18
(g22
S'\xc0I-\xc75\xc4\xa4?'
p49
tp50
Rp51
ag18
(g22
S'\xfa\xa7\xb0"|u\xaa?'
p52
tp53
Rp54
asS'current'
p55
(lp56
F0.01087456969294814
aF0.0022582754802922492
aF-0.020319569348966008
aF-0.007736079316450859
aF-0.00943988396510259
aF0.0008933928837261054
aF-0.015769752949284895
aF-0.012956164807305142
aF0.02170199927759353
aF-0.033360430674498565
asS'future'
p57
(lp58
g18
(g22
S'\x00\x00\x00\x00\x00\x00\x00\x00'
p59
tp60
Rp61
ag18
(g22
S'^q\xddk\xf8\xc7\x84?'
p62
tp63
Rp64
ag18
(g22
S'\xf4v\xaf\x12=\xa9\x96?'
p65
tp66
Rp67
ag18
(g22
S'\xc4c9\x8a/\x10\x99?'
p68
tp69
Rp70
ag18
(g22
S'\xf3\xad5"\xc0\xdb\x9b?'
p71
tp72
Rp73
ag18
(g22
S'&\xed\x81\xdbj\xc0\x9c?'
p74
tp75
Rp76
ag18
(g22
S'\x88o\xfa\xfc%\xca\x9d?'
p77
tp78
Rp79
ag18
(g22
S'U\xef\xd4\x8c\x98\xc7\x9b?'
p80
tp81
Rp82
ag18
(g22
S'\x83N\xac\xa1P\xe0\x9a?'
p83
tp84
Rp85
ag18
(g22
S'\xebn\xe2\x06\xcf\xe0\xa5?'
p86
tp87
Rp88
asS'sharpe'
p89
g18
(g22
S'\x17\x8c#i\xbdu\xea?'
p90
tp91
Rp92
sa.