(lp1
(dp2
S'matches'
p3
(lp4
(lp5
F0.042990651430861775
aF-0.022401110515855239
aF-0.0073327130652524417
aF0.018467197322214236
aF0.015412186173466012
aF0.015178256065200475
aF0.041337192814324422
aF0.0059124416909142217
aF0.039462338351516704
aF-0.0024230205038727965
aa(lp6
F0.037036490129649838
aF-0.015304015638635274
aF0.020726967367963377
aF0.01522627415186408
aF0
aF0.024998180953738403
aF0.082929694375374924
aF-0.0090092436114557906
aF0.018183202081186799
aF0.01339007607229192
aa(lp7
F0.016311125052279361
aF0.0055555763603117965
aF-0.023736444111652152
aF0.030182415220759009
aF0.0050864697828496529
aF0.0062752426609214056
aF0.073828245299300779
aF0.0074934056295727029
aF0.011156601174351147
aF0.00036780065524457425
aa(lp8
F0.031645581089394886
aF0
aF-0.021471477999145599
aF0.040751474658845044
aF0.030120489720449756
aF0.029239773425557173
aF-0.0056817788984576401
aF-0.011428696472530305
aF0.037573135648655942
aF-0.013928366917571438
aa(lp9
F-0.0093458795256028127
aF-0.006485799228743633
aF-0.004747750095526913
aF0.014311264397181271
aF0.019106317897811722
aF0.0060571863028257228
aF0.092603217930157217
aF-0.0013119923426940523
aF0.0086704830988902307
aF0.002083924878353044
aa(lp10
F0.035087493649395271
aF0.025411144868377613
aF0
aF0.049587077307126005
aF0.047261685534010285
aF0.015037428202895081
aF0.096278958629753095
aF0
aF0.013513580454844966
aF-0.01333339850145899
aa(lp11
F0.029196832330531167
aF0.010638938183682051
aF-0.017542983334982241
aF0.0071413207141320491
aF0.031915843756431424
aF0.030924964250771445
aF0.040001569583658872
aF-0.0064097670635368887
aF0.016129117720304845
aF0.0095235115493653225
aa(lp12
F0.0098492026927120696
aF0
aF-0.014632644179805669
aF0.034651838542926083
aF0.023925162076788326
aF0.018691511603285218
aF0.036697098955634437
aF-0.0088493665216117859
aF0
aF0
aa(lp13
F0.048057330706946767
aF-0.017561034402824777
aF-0.011420053263947402
aF0.018081427649457787
aF0.00098671308283267102
aF0.016932224881729074
aF0.059255615300174896
aF-0.0092463989753963291
aF0.0018665273357930088
aF-0.0083837525564233253
aa(lp14
F0.0036036036036036869
aF-0.0062836624775583737
aF-0.010840108401084101
aF0.040182648401826601
aF0.028972783143107993
aF-0.0059726962457338122
aF0.051502145922746746
aF-0.024489795918367405
aF0.040167364016736443
aF-0.0072405470635559018
aasS'symbol'
p15
S'AAL'
p16
sS'stDev'
p17
(lp18
cnumpy.core.multiarray
scalar
p19
(cnumpy
dtype
p20
(S'f8'
I0
I1
tRp21
(I3
S'<'
NNNI-1
I-1
I0
tbS'\x00\x00\x00\x00\x00\x00\x00\x00'
tRp22
ag19
(g21
S'\x07\xa9C\xa1\x03(\x9d?'
tRp23
ag19
(g21
S'^\xd4A\x9f\x9b\xb4\xa9?'
tRp24
ag19
(g21
S'\xae\xae\xf6\x91 \x1f\xa2?'
tRp25
ag19
(g21
S'\xcb\x19,\xb4\xf5\xae\x9e?'
tRp26
ag19
(g21
S'v\xe2\x92\x8e\xd2\x96\x9e?'
tRp27
ag19
(g21
S'\x95\xca\x9b:\xa9\xae\xa4?'
tRp28
ag19
(g21
S'#\xbb\xb2y\x13P\xab?'
tRp29
ag19
(g21
S'\x8e\x15\x94\xa2;\xcf\xa8?'
tRp30
ag19
(g21
S'h|\x10\xf1:\x0c\xa8?'
tRp31
asS'current'
p32
(lp33
F0.036029708090063763
aF-0.013637913399249867
aF-0.020048392671966758
aF0.037037037037036938
aF0.021768741496598694
aF0.037283587307470459
aF0.11232349165596908
aF-0.0060588286208885251
aF0.041509432757345921
aF0.00027865105131973268
asS'future'
p34
(lp35
g19
(g21
S'\x00\x00\x00\x00\x00\x00\x00\x00'
tRp36
ag19
(g21
S'\xd2n/\xb5\n\xf6~?'
tRp37
ag19
(g21
S'\xb6\x10\xfbKpj\x90?'
tRp38
ag19
(g21
S'\x0fB\x7f\x81\x86\xff\x91?'
tRp39
ag19
(g21
S'\xa6\xf38\x1b\xda\xf5\x89?'
tRp40
ag19
(g21
S'\n\xe4\x81\x92Z\x18\xa0?'
tRp41
ag19
(g21
S'2\xf2:\x85\xa7\xc4\x97?'
tRp42
ag19
(g21
S'\nk\\,\xda\x87\x99?'
tRp43
ag19
(g21
S'\xb8\xcb\x84\xa9\xe3\xa4\x9d?'
tRp44
ag19
(g21
S'\x12\xf1\xe5\x97\xd9\xdc\xa6?'
tRp45
asS'sharpe'
p46
g19
(g21
S'\xa6kE\xedKl\xee?'
tRp47
sa(dp48
g3
(lp49
(lp50
F0.034480983722958963
aF-0.033331674787163805
aF0.017240491861479482
aF-0.016948294920830942
aF0.034480983722958963
aF-0.033331674787163805
aF0.017240491861479482
aF0
aF-0.016948294920830942
aF0
aa(lp51
F0.03296325134810843
aF-0.021277979226154528
aF0.02174057472348551
aF-0.010638989613077264
aF0.010753394869398109
aF-0.010638989613077264
aF0.04301439087085214
aF-0.010309919943117652
aF-0.010417321695823292
aF0
aa(lp52
F0.051382070377065533
aF-0.041353231871419226
aF0.023530522282613757
aF-0.01724205488328159
aF0.01169621068057783
aF-0.013486300790501518
aF0.025389704882924028
aF0.0038089871571995474
aF-0.026565523273645683
aF-0.0077961771794799817
aa(lp53
F0.031250038456690332
aF-0.020202101134440736
aF0.015464024251370539
aF-0.005076119518575721
aF0.025510089857926743
aF-0.0049751026557838026
aF0.015000102949659554
aF-0.0098523387935528228
aF0
aF0
aa(lp54
F0.0072803657255747119
aF-0.038703676621417174
aF0.0016977864910049849
aF-0.0072639054805756827
aF0.030731663491994236
aF-0.012068114569071231
aF0.0088622522179215187
aF-0.017568770229512483
aF-0.0050750029820664268
aF0.0043721197783096327
aa(lp55
F0.0039046823294149003
aF-0.022948193715814302
aF0.018710124801432526
aF-0.0066431866512771135
aF0.033438214149492176
aF-0.017891162058352696
aF-0.00038751622180374645
aF-0.0093060034066440762
aF-0.013698578556690487
aF-0.00039684066279634464
aa(lp56
F0.033009340084983602
aF-0.019903569425578006
aF0.028081929685577298
aF-0.0044753238668832117
aF0.034723266633908956
aF0.0057678202247191017
aF0.01117151973869011
aF-0.030566464445268865
aF-0.022716837210030115
aF0.0083961902979011703
aa(lp57
F0.0051067166553841392
aF-0.020785161694282885
aF0.020518854794695812
aF-0.00023116087548037811
aF0.037448046248058725
aF-0.0069073414428070835
aF0.006506648539091925
aF-0.013820766825571495
aF-0.022830057616630799
aF0.014804528989000653
aa(lp58
F0.017142871264320025
aF-0.019662874001716804
aF0.0085959563611355764
aF-0.011363619784417843
aF0.048850599710071198
aF-0.016438368540371538
aF0.052924768855671017
aF-0.023809506784226792
aF-0.016260175107774964
aF-0.0082644320408881283
aa(lp59
F0.019895984142863431
aF-0.0098419569973733009
aF0.0090522934991066097
aF-0.0012312074012651004
aF0.036280353951309595
aF-0.0090074618380415993
aF0.015777503711122819
aF-0.0081038872309459661
aF-0.017702257671560358
aF-0.012475896343027475
aasg15
S'RRC'
p60
sg17
(lp61
g19
(g21
S'\x00\x00\x00\x00\x00\x00\x00\x00'
tRp62
ag19
(g21
S',\x9d04\x9f\x88\x8a?'
tRp63
ag19
(g21
S'\x92@]\x1e\xe7\x96\x94?'
tRp64
ag19
(g21
S'\xda"\x8cF\xe6\xf5\xa1?'
tRp65
ag19
(g21
S'\xaeM+\x99\xcb:\xa7?'
tRp66
ag19
(g21
S'\x1d\xaf_\xb2\xad\xcb\xa6?'
tRp67
ag19
(g21
S'4XU\x81\x00}\xa7?'
tRp68
ag19
(g21
S'pM\xf5\xe5\xb7\x17\xa7?'
tRp69
ag19
(g21
S'u\x1e\xfdB\x0f\xa0\xa5?'
tRp70
ag19
(g21
S'\xd7\xf8Q\xdc\x1a\x10\xaa?'
tRp71
asg32
(lp72
F0.03106168361292715
aF-0.050134892086330866
aF0.018224852071005992
aF-0.010925174337517513
aF0.037132832835084215
aF-0.01563566699216707
aF0.030156561467692477
aF-0.014748603351955231
aF-0.024268541619414837
aF0.001859553695955282
asg34
(lp73
g19
(g21
S'\x00\x00\x00\x00\x00\x00\x00\x00'
tRp74
ag19
(g21
S'j\xba\x94\x01F\xb3\x81?'
tRp75
ag19
(g21
S'-\x8ci\xc5\x87\x9e\x8b?'
tRp76
ag19
(g21
S'\xfe\xbc$\xc8\x83V\x85?'
tRp77
ag19
(g21
S'k\x1a\x8c\x177E\x91?'
tRp78
ag19
(g21
S'-Y\x89\x0f\x7f\xa6\x94?'
tRp79
ag19
(g21
S'\x9b\xaeU\xa9F\x88\x9e?'
tRp80
ag19
(g21
S'\x84u\xa9\x9ev\x8a\xa0?'
tRp81
ag19
(g21
S'\xb6\x93\xa3<\xb7\xd2\xa3?'
tRp82
ag19
(g21
S'.\x1b\xe5\xeb\x03Q\xa6?'
tRp83
asg46
g19
(g21
S'\xc1rchnf\xeb?'
tRp84
sa(dp85
g3
(lp86
(lp87
F-0.018265165067490631
aF-0.023255650847289058
aF-0.023809352843927187
aF0.0048778727907100115
aF0.014562932510799593
aF0
aF0.019138759268586408
aF-0.0046943307991251064
aF0.01415043054525808
aF0.004651998515795599
aa(lp88
F-0.012511788998372431
aF-0.02797039031093353
aF-0.0068863375948690622
aF0.00099050105624335695
aF0.011380587890899895
aF0.0046477153371363867
aF0.022644276530892606
aF0.0071428392849873252
aF0.021749446575962689
aF0.0009254385130033129
aa(lp89
F-0.0091210612145467326
aF-0.022594166014753343
aF-0.00085611503826423169
aF0.0034275755105752348
aF0.0017078434361333576
aF0.0059677113472464457
aF0.017796568881201902
aF-0.0083263547408129052
aF0.0025188351405674857
aF0.0067002239898659504
aa(lp90
F-0.016443651159322909
aF-0.019634603763929521
aF0.0015865717703689346
aF0.0013856238670857707
aF0.0067223105163775523
aF0.007266100353825326
aF0.017157565967906418
aF-0.003450522912636895
aF0.015003184894492748
aF-0.019518899273789126
aa(lp91
F-0.012824691361222431
aF-0.024983338015464315
aF0.014349163667796977
aF0.0026944802378314242
aF0.0067181539314535117
aF0.0086753289399358648
aF0.014555117241714651
aF-0.0032605238838992316
aF0.0081779384040101457
aF-0.0016222920476382751
aa(lp92
F-0.0077737143858004343
aF-0.022415722205719763
aF0.0035619591950435507
aF0.0026619194418765054
aF0.012168134017009063
aF0.007431682372310313
aF0.0032545431332666698
aF-0.0030277531703300623
aF0.016702845886639627
aF-0.0027735846783887067
aa(lp93
F-0.014705907957086845
aF-0.027718517655463078
aF0
aF0.0065789168976727441
aF0.010893273723235989
aF-0.01077588901458886
aF0.023965167244671157
aF0.010638267616532537
aF0.012631577170036677
aF0.0041580035802483636
aa(lp94
F-0.0066139690359592737
aF-0.021692492976373962
aF-0.001317190360359543
aF-0.0026379999980222961
aF0.0024245183242620374
aF0.010633548018431641
aF0.013590599833324907
aF-0.0067041742317525636
aF-0.0023949781568793028
aF0.0067656508394348227
aa(lp95
F-0.016885258264326661
aF-0.027876865428012716
aF0.010192986947730718
aF-0.0047087177530278669
aF0.012976466086382973
aF0.00013337336179934073
aF0.0060040696199094501
aF-0.0051724136559041546
aF0.023330222014925423
aF0.0076862426345429133
aa(lp96
F0.0033784508537270984
aF-0.025252596187946404
aF-0.00074016779521747728
aF0.0019753580246913665
aF0.014785558660149878
aF-0.0016998300145702478
aF0.023838457216286777
aF-0.0038013779995249154
aF0.0088242070116861422
aF-0.013002340732915849
aasg15
S'NTRS'
p97
sg17
(lp98
g19
(g21
S'\x00\x00\x00\x00\x00\x00\x00\x00'
tRp99
ag19
(g21
S'\x01V9\xb2\xc8=\x92?'
tRp100
ag19
(g21
S'\xc4\xd5\xf1ly\xcd\x95?'
tRp101
ag19
(g21
S'O\xd0B38\r\x98?'
tRp102
ag19
(g21
S'`\x0cx\xb6\xda"\x9c?'
tRp103
ag19
(g21
S'\x96\x11\xd3\xc8\xe7\xa0\xa3?'
tRp104
ag19
(g21
S'B\xb1n\x02\xac.\xa2?'
tRp105
ag19
(g21
S'\xbe\x89l \x13|\xa5?'
tRp106
ag19
(g21
S'\xcb\xa9x\xccju\xa8?'
tRp107
ag19
(g21
S"\x0b^>U\xf0'\xa4?"
tRp108
asg32
(lp109
F-0.015544807861611651
aF-0.025755080832971858
aF-0.0012588198467162247
aF0.00078775798349207016
aF0.01590048803526449
aF0.0077483342282401082
aF0.019375703819401874
aF-0.0063357669884483289
aF0.013815028974569907
aF0.0035938604910730819
asg34
(lp110
g19
(g21
S'\x00\x00\x00\x00\x00\x00\x00\x00'
tRp111
ag19
(g21
S'X\x06\x11\xd3\xb2-y?'
tRp112
ag19
(g21
S'E\x9eN\x05\x1d3\x87?'
tRp113
ag19
(g21
S'.\xaa\xb4\xf4\x7f\xce\x90?'
tRp114
ag19
(g21
S'\xf61}"\xbcg\x96?'
tRp115
ag19
(g21
S'W1\xecW\xc5\xd7\x96?'
tRp116
ag19
(g21
S'\x03\xc1\xe8dTk\x9d?'
tRp117
ag19
(g21
S'\x17\xf1s\xb8\x86\xa0\xa0?'
tRp118
ag19
(g21
S'S\xe3B\xe1D\xda\xa0?'
tRp119
ag19
(g21
S'R\xabr\xc2"9\xa2?'
tRp120
asg46
g19
(g21
S'\xf8\x08\x93dq\xee\xec?'
tRp121
sa(dp122
g3
(lp123
(lp124
F0.0078749423608977104
aF0.0038971746377450761
aF0.015566160335249123
aF-0.0076637844697929718
aF0.0077229716600620063
aF0
aF0.007663784469793101
aF0.0076043378473821281
aF-0.015095047581339572
aF0
aa(lp125
F0
aF-0.0096614288710705366
aF0.014633524058429421
aF-0.0096149816404625475
aF0.014563304314142838
aF0
aF0
aF0.0095689711872101405
aF-0.01421820527732485
aF0.014423278410537884
aa(lp126
F0.0016017682490767611
aF-0.0010504758981960704
aF0.012321032241344065
aF-0.0035505187884166149
aF0.010658548693922149
aF0.0036487843428098334
aF0.00088963948251047256
aF-0.0023142610444537599
aF-0.008863633127556312
aF0.0088189753474461081
aa(lp127
F0.0086779590896593258
aF0.0083344825637588407
aF0.014397986639154424
aF-0.0051254978813197365
aF0.017305215831954084
aF-0.011816695488610899
aF0.00091984831919304029
aF0.007632603096088997
aF-0.013843492471058358
aF0.0037080987431975933
aa(lp128
F0.0070946810924772423
aF0.0035223731702491942
aF0.011231994742815167
aF-0.0062478326685997381
aF0.013622116568557075
aF0
aF-0.0062026206797962946
aF0.0093620221800770533
aF-0.024390311572777414
aF-0.0010562857193284873
aa(lp129
F-0.00062464026826157158
aF-0.00087500208841707699
aF0.013011392301703863
aF-0.0095097428374517727
aF0.021571115634995076
aF-0.0030513854872597462
aF-0.0012242749629989874
aF0.0098062678245389844
aF0.0012139713279343363
aF0.012245317116325276
aa(lp130
F0
aF0.0058138676671253692
aF0.0057802619888410629
aF-0.011494085154168851
aF0.011627735334250868
aF-0.0057470425770844904
aF0.0030863481852772458
aF0.0059172705762828006
aF-0.011764634014374893
aF0.011904688315461502
aa(lp131
F0.010367096312358671
aF-0.00499167975216217
aF0.013935361636227222
aF-0.0071468624906454543
aF0.0080288015731926655
aF0.011809973888613016
aF0.003800198080338291
aF0.00081122151236071114
aF-0.012158791782009581
aF0.0091184556577071606
aa(lp132
F0.016661352398830521
aF0
aF0.016408179131640947
aF0
aF0.016123739925378772
aF0
aF0
aF0
aF-0.015867890190778194
aF0.016123739925378772
aa(lp133
F0.006081468687342678
aF0.0060447910102484096
aF0.010614846331743462
aF-0.0041616717088283853
aF0.0153233880889403
aF-0.0062721836526729779
aF-0.0019723340087665691
aF0.006324137194200493
aF-0.0033385403870893901
aF0.0045318929847636205
aasg15
S'FE'
p134
sg17
(lp135
g19
(g21
S'\x00\x00\x00\x00\x00\x00\x00\x00'
tRp136
ag19
(g21
S'\xa7\xfa\xf3\xef\x7f\xfa\x8a?'
tRp137
ag19
(g21
S"\x14\xe8'=\xe7\xe9\x82?"
tRp138
ag19
(g21
S'i\xfa\xe6\xdf\xf2\x8e\x89?'
tRp139
ag19
(g21
S'*\x0f\xb6.\xef\xfc\x93?'
tRp140
ag19
(g21
S')^\xeb^\xf1\xd4\x98?'
tRp141
ag19
(g21
S'\xe6\x18\x11<\xce\xa5\x9a?'
tRp142
ag19
(g21
S'\xc5\xad7\xf1\xc0\x0c\xa0?'
tRp143
ag19
(g21
S'\xad\x19Z\xafa\xb9\xa0?'
tRp144
ag19
(g21
S'\x146\xe8\xc6\x8ax\x9f?'
tRp145
asg32
(lp146
F0.0063019478659410901
aF0.0014232564354324864
aF0.012507077885162031
aF-0.0081414095491692626
aF0.019530086638545982
aF0.0024986396446416929
aF0.0022153973354917204
aF0.0069079858222709538
aF-0.016191026788996369
aF0.0094839893714917609
asg34
(lp147
g19
(g21
S'\x00\x00\x00\x00\x00\x00\x00\x00'
tRp148
ag19
(g21
S'\xbe\x1d\x1c\t/\xd3\x80?'
tRp149
ag19
(g21
S'\xedjo\x8a\xa8Js?'
tRp150
ag19
(g21
S'r\x196\x10_"\x8a?'
tRp151
ag19
(g21
S'\xbf<$$\x1d(\x94?'
tRp152
ag19
(g21
S'\xd0\xa5\xe2@\x97c\x9d?'
tRp153
ag19
(g21
S'r\xcc&4E#\x9e?'
tRp154
ag19
(g21
S'\x98\xaaE\xcfR\xc2\x9f?'
tRp155
ag19
(g21
S'\xaf\x8a\xbb6\xae\x93\xa3?'
tRp156
ag19
(g21
S'>r\xbd$\xf8\xf9\xa1?'
tRp157
asg46
g19
(g21
S'\xdf3\xd0\x15XG\xf2?'
tRp158
sa(dp159
g3
(lp160
(lp161
F-0.01169468221936407
aF-0.0088783897552070449
aF-0.0089506770964452708
aF0.015054962125019358
aF0.038577110110490531
aF0.00285337863606408
aF0.025643640688255684
aF0
aF0
aF-0.002774121457981222
aa(lp162
F0.00032061455940905656
aF-0.0060937094005104799
aF-0.013552800050601815
aF0.014066468290008493
aF0.032580139864877004
aF0.003748985976955342
aF0.017117953615159665
aF0.00061221875710705097
aF0.0030580333795885766
aF0.0030488050315181118
aa(lp163
F-0.024941731324887355
aF-0.018646960797370753
aF-0.0085261454216676181
aF0.011793603634263504
aF0.033511430494392695
aF-0.0023496771339943405
aF0.012011349338876374
aF0.0065161557748305531
aF0.010173382018459041
aF0.0013733430675087941
aa(lp164
F-0.012911034492528334
aF-0.023298565879944153
aF-0.0075329778512017217
aF0.014336927210897191
aF0.016628553088638733
aF0.019627853450221756
aF0.02606776989407868
aF0.0021496960834951288
aF0.0064352973358791331
aF0.0069754121009977174
aa(lp165
F-0.0085744990920410321
aF-0.0082882583294666915
aF-0.016351789685324105
aF0.015145906225173757
aF0.012008751595292362
aF-0.008989570892170869
aF0.037010183614012385
aF0.0024492462119267582
aF0.0055846321681573023
aF0.012842788977183477
aa(lp166
F-0.0034251175898555378
aF-0.006157815587861399
aF-0.0097982667784044832
aF0.0096041271104692419
aF0.021476013128272346
aF-0.0021165828360276773
aF0.016826957274574016
aF0.0037546617265501749
aF0.0019395738010272805
aF0.0023506386721941067
aa(lp167
F-0.00095851644154830939
aF-0.040844218963266968
aF-0.011860581212178719
aF0.013159756878224326
aF0.024835928191891808
aF0.0019498429705224385
aF0.021128682081167086
aF-0.015926998964250812
aF0.01521644553972851
aF0.0049053281549115172
aa(lp168
F0.0028078394359369739
aF-0.0072000128592937815
aF-0.015914599816193281
aF0.012077790398984191
aF0.017192608214689303
aF0.0045734618413283074
aF0.034837650757635313
aF0.0022954018433546538
aF0.002862556489158067
aF-0.0019029422037518306
aa(lp169
F-0.023529357528004499
aF-0.03159817162789369
aF-0.0070422272666425907
aF0.020803824200676987
aF0.021537742660377068
aF0.0004534184129357601
aF0.036709692672180105
aF0.0024044060413591552
aF0.01657211711887846
aF-0.012226483915412258
aa(lp170
F-0.017403797439201285
aF-0.008449800494436081
aF-0.0052441774696214962
aF0.010461258686355049
aF0.035460980747345362
aF0.0011022438789476791
aF0.023592326806729399
aF-0.010044041798653498
aF0.010692230994693542
aF0.005096555840183808
aasg15
S'FMC'
p171
sg17
(lp172
g19
(g21
S'\x00\x00\x00\x00\x00\x00\x00\x00'
tRp173
ag19
(g21
S'\xc8\xdc\xe1\xa9\xd0\x18\x8d?'
tRp174
ag19
(g21
S'Z\xee\x1cP)x\x92?'
tRp175
ag19
(g21
S'\xea~\x1b@Y\x1f\x8a?'
tRp176
ag19
(g21
S'\xd5\xc7#i\x90\x85\x8c?'
tRp177
ag19
(g21
S'h\x95\xb4\xe4C/\x93?'
tRp178
ag19
(g21
S':\xfcV1i\xaa\x97?'
tRp179
ag19
(g21
S'\xc9\xde\xfa\x0e\x7f\x98\x98?'
tRp180
ag19
(g21
S'P\xbd\xcd\xbe\x1c\x97\x9c?'
tRp181
ag19
(g21
S'W\xcb\xac\x8bg\xf5\xa2?'
tRp182
asg32
(lp183
F-0.0053984019564154188
aF-0.029526703657692048
aF-0.012080559013857824
aF0.014492730978260942
aF0.037500023158482595
aF-0.0012909208261617305
aF0.035760535793215691
aF0.0043676994855365494
aF0.0072478358407987295
aF0.0045230675272010966
asg34
(lp184
g19
(g21
S'\x00\x00\x00\x00\x00\x00\x00\x00'
tRp185
ag19
(g21
S'0\xf1@\xa7xlz?'
tRp186
ag19
(g21
S'\xa9\xd9\x85\x9f\x8a.\x83?'
tRp187
ag19
(g21
S'|5\x1b{(o\x85?'
tRp188
ag19
(g21
S'\xd0\x91\xdc\xe7\xe5\xb1\x89?'
tRp189
ag19
(g21
S'}\x96\xb1\xe4[\x8e\x91?'
tRp190
ag19
(g21
S'\xc6\x1b\xe1$K\xdc\x93?'
tRp191
ag19
(g21
S'\xf9\xb8\x1ec\xcf\xf0\x95?'
tRp192
ag19
(g21
S'h\xa3\x83Nn\xbe\x9d?'
tRp193
ag19
(g21
S'b\xe0\xf7@\x94s\xa0?'
tRp194
asg46
g19
(g21
S'\xeb\xe8\x1c\xcd\xab\xc4\xeb?'
tRp195
sa(dp196
g3
(lp197
(lp198
F0
aF0
aF0.0084740341019721496
aF0.0084028282488384769
aF0.025001162463108878
aF-0.0081308948654213401
aF-0.0081962030850438669
aF0
aF0
aF0
aa(lp199
F0
aF-0.0054646750116296378
aF0.021978009710735137
aF-0.0053765362061455671
aF0.032432970094192784
aF-0.010471726899623618
aF-0.0052911954231736006
aF0
aF0
aF0
aa(lp200
F0.0082972580247462294
aF-0.0023180281367250629
aF0.0090613096970802408
aF0.0082892491732769295
aF0.038307806951750199
aF0.014735832146446737
aF0.0025467356526385995
aF-0.0054048270895533691
aF0.0024997277694013822
aF0.005529021229640909
aa(lp201
F-0.0076038757569031222
aF0
aF0.019156644680718319
aF-0.0037577819261536342
aF0.033962974632474448
aF-0.0073023081239571245
aF0
aF-0.0036736445948508415
aF-0.0018460998947949581
aF0.0073930380969828178
aa(lp202
F0.0096630163465152678
aF0.0012269898019672621
aF0.0039215660743100907
aF0.011962918534898581
aF0.01423403610223645
aF-0.0047574085339216225
aF-0.00095603501068418741
aF-0.00095697530730191481
aF0.0067050658003707693
aF-0.000713684574417407
aa(lp203
F-0.00064277709704271737
aF0.0055746566256610133
aF0.011513791217373674
aF0.0069561956162954314
aF0.022399000489604387
aF-0.000819031938338993
aF0.00081970330152290221
aF-0.0055282602970343417
aF-0.0022648022595477021
aF-0.0055716104469049205
aa(lp204
F-0.0052816589441083165
aF-0.0035398704385037482
aF-0.0071047882334576646
aF0.0071556274511757854
aF0.039076386803082244
aF-0.0085469746450626567
aF0
aF-0.0034482720682811421
aF0.0034602037923689285
aF-0.0086207051752136069
aa(lp205
F-0.0078782296282443424
aF0.0018528057663527947
aF0.015852127654009413
aF0.0033810402241602031
aF0.031622522984835491
aF-0.0077888695424339774
aF-0.012914711931389624
aF0.00076957414058507416
aF0.009228429081180595
aF-0.00076197614330639316
aa(lp206
F0.0088105726872246704
aF0.013100436681222707
aF0.017241379310344827
aF0.01059322033898305
aF0.016771488469601678
aF-0.0061855670103092781
aF0.0020746887966804979
aF-0.002070393374741201
aF-0.0082987551867219917
aF-0.0062761506276150627
aa(lp207
F0.0015698511928845778
aF0.0031347848254999165
aF0.012500033143575855
aF0.0046296144381028879
aF0.030722005023728589
aF-0.0029806898316981725
aF0.01046341710741259
aF0.0014792828388199585
aF0.010339772267065618
aF-0.0073099896781270097
aasg15
S'LEN'
p208
sg17
(lp209
g19
(g21
S'\x00\x00\x00\x00\x00\x00\x00\x00'
tRp210
ag19
(g21
S'Q\xbej\xa4\xc1\x17\x8a?'
tRp211
ag19
(g21
S'EDu\x1fj\x99\x91?'
tRp212
ag19
(g21
S'\x08\xb9\xee\xf5\xa5_\x98?'
tRp213
ag19
(g21
S"\xc4c\x97'q\xbd\x97?"
tRp214
ag19
(g21
S'/\xcd\xa9LbO\x9d?'
tRp215
ag19
(g21
S'\xa9\x06c\xa7w\x87\xa0?'
tRp216
ag19
(g21
S'\xfcyh\xa9Q\x8b\x9f?'
tRp217
ag19
(g21
S'\xd9\xf7\t@p\xd0\x9c?'
tRp218
ag19
(g21
S'~\x8b\xd5;\xe88\xa0?'
tRp219
asg32
(lp220
F0.0069414367565231996
aF-0.0017233532203121725
aF0.015550755939524968
aF0.0099957890259462744
aF0.035165254362381368
aF-0.0083401139137509479
aF0.00061536410256403189
aF-0.0014350143795614507
aF0.0012318004769410844
aF-0.0024604880049211089
asg34
(lp221
g19
(g21
S'\x00\x00\x00\x00\x00\x00\x00\x00'
tRp222
ag19
(g21
S'=t\xa5R7r|?'
tRp223
ag19
(g21
S'\xce\x98\x810w\xa5\x82?'
tRp224
ag19
(g21
S'\x86\xdf\x888g5\x92?'
tRp225
ag19
(g21
S'Q\x1d{\x06\x94\x07\x92?'
tRp226
ag19
(g21
S'\xa0\xc0\x11@\xf6t\x99?'
tRp227
ag19
(g21
S'\xe3\x94\n\xd2VF\x94?'
tRp228
ag19
(g21
S'\xa3\xfc\xad\xf7\xa8i\x98?'
tRp229
ag19
(g21
S'\x82\xb0\xf5\xfa\x19\xe7\x99?'
tRp230
ag19
(g21
S'\xf0-\x85\x89\x02\x17\x9e?'
tRp231
asg46
g19
(g21
S'\x88\xee\x08\xaft\xad\xed?'
tRp232
sa(dp233
g3
(lp234
g164
ag88
a(lp235
F-0.0025900749128780062
aF-0.013102000982765342
aF0.0062193141530559604
aF0.0061809621958108024
aF0.0056703625281449834
aF0.019852015898197888
aF0.031444405268273232
aF-0.0008933704165316
aF0.017435977995488981
aF0.0057124501765560406
aag93
ag92
a(lp236
F-0.015945330296127564
aF-0.030092592592592591
aF-0.0071599045346062056
aF0.01201923076923077
aF0.0166270783847981
aF0.02336448598130841
aF0.011415525114155251
aF-0.0090293453724604959
aF0.020501138952164009
aF0.013392857142857142
aa(lp237
F-0.0085057237802314816
aF-0.036517526560729235
aF0.0039706634847229486
aF-0.0056328003525240762
aF0.025430888704453154
aF0.014809524404118608
aF-0.0035904316060719425
aF-0.0011623651790678277
aF0.010008148872358782
aF-0.0002304872789661559
aa(lp238
F-0.0015802211856672547
aF-0.034027987338433048
aF0.0046423267242578746
aF-0.016036966131096227
aF0.014364640487164715
aF0.017429193425130718
aF0.034528933765285603
aF0.017852469968824395
aF0.0152516268429079
aF0.0017526039497397787
aag91
a(lp239
F-0.0076432344069428193
aF-0.022964090168435276
aF0.0049638245370194197
aF0.0082799717286691429
aF0.0066272149946068823
aF0.0045800632409473945
aF0.028493784927652959
aF-0.0033245382585753267
aF-0.0015285573682267677
aF0.014198249998223082
aasg15
S'HBAN'
p240
sg17
(lp241
g19
(g21
S'\x00\x00\x00\x00\x00\x00\x00\x00'
tRp242
ag19
(g21
S'\xadk)\xe2}8\x88?'
tRp243
ag19
(g21
S'X\xe3\x97\xb8Jm\x90?'
tRp244
ag19
(g21
S'_?\xa3\xe5Q\x15\x8f?'
tRp245
ag19
(g21
S'v\xae\xe0@\x083\x94?'
tRp246
ag19
(g21
S"}\x19\x9fR'[\x9f?"
tRp247
ag19
(g21
S'\xd1\xaf/fG\xf8\x98?'
tRp248
ag19
(g21
S'*\x96j+\x06\x9e\x9e?'
tRp249
ag19
(g21
S'W\xdam\x1b\xa4\x9b\x9f?'
tRp250
ag19
(g21
S'\xec7;\x9e\t5\x9b?'
tRp251
asg32
(lp252
F-0.012304250559284054
aF-0.036240090600226531
aF0.0011750881316098458
aF0.0070422535211268197
aF0.016317016317016382
aF0.01490825688073383
aF0.028248587570621469
aF-0.002197802197802151
aF0.016519823788546294
aF0.0032502708559045894
asg34
(lp253
g19
(g21
S'\x00\x00\x00\x00\x00\x00\x00\x00'
tRp254
ag19
(g21
S'\x04\xd7\x85\xda\xd8\x9e\x81?'
tRp255
ag19
(g21
S'n\xc6\xe2\x9ct\x04\x89?'
tRp256
ag19
(g21
S'\xfb\x97\x0c\xe0\xa5t\x92?'
tRp257
ag19
(g21
S'\x12_\xc9\xec\x8d\xbc\x98?'
tRp258
ag19
(g21
S'\xca\x1eD\x05\xd6"\x97?'
tRp259
ag19
(g21
S'\xdf\xf2\xdf3\xff\xe3\x98?'
tRp260
ag19
(g21
S'\x1a_|\x9a\xb0A\x98?'
tRp261
ag19
(g21
S'\xea\x89\x91\xa6\x12\xfb\x99?'
tRp262
ag19
(g21
S'\xd0\x81\xa7\xdf\x81\xb4\x9d?'
tRp263
asg46
g19
(g21
S'\xf9\xa6\x167\x0fx\xf1?'
tRp264
sa(dp265
g3
(lp266
(lp267
F0.0048982833727624631
aF-0.0061918276559290416
aF0.0012372321261741436
aF0.0017211704262530033
aF0.0092079083480114433
aF-0.0022700658493453492
aF0.005731778529007533
aF0.0062211432775552741
aF0.0072636432653616217
aF-0.0015452633319943422
aa(lp268
F0.0046007620069760755
aF-0.0075430798251982512
aF0.0038001836344217356
aF0
aF0.0054083487080261363
aF0.0086067751753250866
aF0.0058667177429083464
aF0.0063625859407698002
aF0.0063225265367804831
aF-0.0060209454738493016
aa(lp269
F0.001864331903979022
aF-0.010479912891117025
aF0.0027714423112526875
aF0.0015793425632707103
aF0.010249346342934673
aF0.012096360099238149
aF0.0014457980719397644
aF0.00384986960673468
aF0.013039314519425615
aF-0.0044482386422296282
aa(lp270
F-0.000497013401517489
aF0.0059671265600771579
aF0.0066732730867762446
aF0.0017186194409002334
aF0.012254891681520214
aF0.00096856363152812285
aF0.0036284635810140864
aF0.0069895729128949041
aF0.012206858649245192
aF-0.0044928436533712302
aa(lp271
F0
aF0
aF0.010000253042840152
aF0.0070491203631788922
aF0.01000010946482644
aF0.0049500560625379483
aF0.0098523278318211598
aF0
aF0.0097562064871151606
aF-0.0048304905486221154
aa(lp272
F0.0093461243969343525
aF0
aF0
aF0
aF0.009260196926483678
aF0
aF0.0091752324669930555
aF0.0090918129694519123
aF0.018014418939891922
aF0
aa(lp273
F0.0012345677508559061
aF-0.0041923848568593668
aF0.0023526799877933262
aF-0.0011118275760981316
aF-0.0042047533466738471
aF0.0028564183872497291
aF0.013622291008380989
aF0.0085522294580937294
aF0.01344636638059938
aF0.0010758121554045959
aa(lp274
F0.006465754566528808
aF0.00017359020667741994
aF0.0029511666777810772
aF0.0082215235958368483
aF0.011330477267466993
aF0.0015277470158146056
aF0.0084745749100806431
aF0.0016806548500779023
aF0.0078859235115063056
aF-8.3255383796588343e-05
aa(lp275
F0.0079096582478839876
aF-0.0031764284566788681
aF0.0003749017039074316
aF-0.0052463715374143835
aF0.0064042255663550414
aF0.010293818128504516
aF0.01136991336107304
aF0.0073719288348601504
aF0.02286865317086529
aF-0.0037560288854831237
aa(lp276
F0.0002077238996763219
aF-0.0078936720506255723
aF-0.00041869267472998702
aF0.00083781515999825141
aF0.013604067099281344
aF0.0039231631918315657
aF0.0057589976640621413
aF-0.004499020583479044
aF0.0086277457768371181
aF-0.0034622864742275446
aasg15
S'IBM'
p277
sg17
(lp278
g19
(g21
S'\x00\x00\x00\x00\x00\x00\x00\x00'
tRp279
ag19
(g21
S'\x7f@ \xa2\x15\xf4\x89?'
tRp280
ag19
(g21
S'\xf6\xbd\x8f\xc1\xd2\x02\x96?'
tRp281
ag19
(g21
S'\xe9s;n/\xa2\x91?'
tRp282
ag19
(g21
S'\x98\x83X<\x87V\x96?'
tRp283
ag19
(g21
S'B \x0e\x8b\xc7\x00\x98?'
tRp284
ag19
(g21
S'\n\xa4\xb8\x04\xd9\x13\x9b?'
tRp285
ag19
(g21
S"\xcdlf'`\xfb\x99?"
tRp286
ag19
(g21
S'<\xee\x8f\x04\x97\x17\x98?'
tRp287
ag19
(g21
S'\xdf\xf0$\x89\tc\x96?'
tRp288
asg32
(lp289
F0.00375548164287446
aF-0.0043978534533173005
aF0.0045490640285036979
aF0.0015095557363509716
aF0.012188734776327483
aF0.0056324935942804744
aF0.011008761848853915
aF0.0062405186174453687
aF0.014301955086648419
aF-0.0031195408230567808
asg34
(lp290
g19
(g21
S'\x00\x00\x00\x00\x00\x00\x00\x00'
tRp291
ag19
(g21
S'\xb5x4\x16\xdf\xbdR\xbf'
tRp292
ag19
(g21
S"S\xf0a\xe3'%P?"
tRp293
ag19
(g21
S'\xb7\xa9+e9\x92f?'
tRp294
ag19
(g21
S'\x1a\x83\xb3\xc8g\x88L?'
tRp295
ag19
(g21
S'%\xc3\x19\x9a\xe3\xefw?'
tRp296
ag19
(g21
S':A\x82\x9c\x940z?'
tRp297
ag19
(g21
S'\x8bd\xd9\x0ba\x00\x83?'
tRp298
ag19
(g21
S'\xee\xae\x8c\xeea\\\x98?'
tRp299
ag19
(g21
S'@\x8e\xfa\x15\xfb\x15\x9d?'
tRp300
asg46
g19
(g21
S'd\xe2S\xae\xad\xc9\xf4?'
tRp301
sa(dp302
g3
(lp303
(lp304
F0.003206798364616736
aF0.0063883190481762433
aF0.0047637918596704276
aF0.0047376631228663278
aF0.0047153235085674039
aF0.0046967029496230248
aF0.006229114999941744
aF-0.0077399273333178418
aF0.0046820464799523171
aF-0.0093169720479231583
aa(lp305
F0
aF0.0039841317384789274
aF-0.0039683214231484758
aF0.007968167598540965
aF0.011857719164960168
aF0
aF0
aF-0.0039062224592421829
aF0.0039215408702644458
aF-0.0047770920682335674
aa(lp306
F0.0077721714220993004
aF0.011568080584464022
aF0.0076237728441001058
aF0.008827279375945964
aF0.018749975804734535
aF0.0049079439100810085
aF0.0036630747668840139
aF-0.0085158541976449072
aF0.0012270176441260671
aF-0.011029372229958404
aa(lp307
F-0.00051404270026530086
aF0.0077145780878394516
aF0.004036537855688427
aF0.0061460352905555416
aF0.014834938039497279
aF-0.00733169328692127
aF0.00050150908181826855
aF-0.0036454910500636909
aF0.014909719137700932
aF-0.012122044754683481
aa(lp308
F0.0030536644968272961
aF0.0015913382706907672
aF0.0051809868253672097
aF0.011133329914514439
aF0.015292597023524989
aF0.0032132546334443244
aF0.011744254503060965
aF0.001714877835760931
aF0.006979179051088997
aF-0.019877128091542188
aa(lp309
F0.0017165106432267658
aF0.0055690762247062649
aF0.0032661009987959293
aF0.0028308555044661101
aF0.010585745078703362
aF0.002094972354517275
aF0.003484320435337902
aF0.0027777778598930985
aF0.0052631402727977101
aF-0.0015155348412888134
aa(lp310
F0.0028169014084507044
aF0.0073033932584269734
aF0.018404918719354887
aF0.014129167115142323
aF0.0096123451609177856
aF-0.00053490584504997912
aF-0.00053519212244465151
aF-0.0024630007216642166
aF0.0027912184049121123
aF-0.011240798148343981
aa(lp311
F-0.0010005252751440535
aF0.0053830873328649482
aF0.0049807123641069347
aF0.007062321980700401
aF0.0051672982919204087
aF0.0018359976194369158
aF-0.00024430055575573893
aF-0.0048882071394790684
aF-0.0089647918457572209
aF-0.010904548112932434
aa(lp312
F0.0017762260955268153
aF0.00059104668309212824
aF0.004429930967544792
aF0.011173218861356261
aF0.01017744430932194
aF0.0037420124272041924
aF0.0040148714331724004
aF-0.0031418596240949449
aF-0.0045845151135829364
aF-0.0011514382721113357
aa(lp313
F0.0055039313427440312
aF0.0073002832425897741
aF0.003623941915233271
aF0.0072186728950181826
aF0.016129632629080896
aF0.0070556471909087072
aF-0.0035028611287116962
aF-0.0052722681556088792
aF0.0088340177622571112
aF-0.0035028611287116962
aasg15
S'INTU'
p314
sg17
(lp315
g19
(g21
S'\x00\x00\x00\x00\x00\x00\x00\x00'
tRp316
ag19
(g21
S'\xf1\x11\x9d\r\xb1\xad\x91?'
tRp317
ag19
(g21
S'}\xc1\xfc\xdf\x12\x9a\x95?'
tRp318
ag19
(g21
S'\x05"+\x86\xc9\xba\x94?'
tRp319
ag19
(g21
S'\xeb\xc6e?e\x99\x93?'
tRp320
ag19
(g21
S'\xc1\xfbk\xb8\xe1n\x92?'
tRp321
ag19
(g21
S'\xc9\xa4n\xc32C\x93?'
tRp322
ag19
(g21
S'9a^p9\x16\x99?'
tRp323
ag19
(g21
S'\xbf\xf6\x1a\xdb\xa30\x9f?'
tRp324
ag19
(g21
S'9/*\xf1\xba\xa1\x9c?'
tRp325
asg32
(lp326
F0.0026879558386682244
aF0.007416623981684094
aF0.004789790270910344
aF0.0085628624442575726
aF0.013426967968407139
aF0.0012988742301990295
aF0.0061402665261679132
aF-0.0036100912363792115
aF0.0040545290554611316
aF-0.012114408558419238
asg34
(lp327
g19
(g21
S'\x00\x00\x00\x00\x00\x00\x00\x00'
tRp328
ag19
(g21
S'\x18\xe7^\xd4n\x16W?'
tRp329
ag19
(g21
S'[\xf5\x07\\\xcfN\x83?'
tRp330
ag19
(g21
S'\xa2\xd4\xd2l \xae\x81?'
tRp331
ag19
(g21
S'\x81\x9b\xf9\xdcD\xd1\x91?'
tRp332
ag19
(g21
S'v\xb4NhZn\x90?'
tRp333
ag19
(g21
S'\x80\xdfNB\x84\xbe\x8c?'
tRp334
ag19
(g21
S'\x069\xd6\xa4\xae8\x8f?'
tRp335
ag19
(g21
S']\x1d\xeb\x91!\x8a\x9b?'
tRp336
ag19
(g21
S'\xe2O\x06\xde\xd8q\x9a?'
tRp337
asg46
g19
(g21
S'c\xbd\xcc\x91@\x8e\xed?'
tRp338
sa(dp339
g3
(lp340
(lp341
F0.0045044588728206467
aF0.0123319083612213
aF-0.0033222462914031347
aF-0.020000093892807103
aF0.0051021090013581008
aF0.01353632688723843
aF-0.0066777709531196817
aF0
aF-0.0084033311203376183
aF-0.0050848133483210453
aa(lp342
F0
aF0.018283356811194997
aF0.0024938200475869191
aF-0.026865669222102914
aF0.0097137255988093401
aF0.011392395142880197
aF0.0015018488646563097
aF0
aF-0.0064983541595381947
aF-0.01433965821652443
aa(lp343
F0.002716406139960402
aF0.02439128288790423
aF-0.0026466054818859797
aF-0.023871630673892797
aF0.019022609183111903
aF0.0026656976160106777
aF-0.0026586105641678744
aF0
aF-0.01234673537780852
aF0
aa(lp344
F0.0081278528446317392
aF0.029572450134968075
aF0
aF-0.031331359214744225
aF0.013475048248509322
aF0.0053196648047621874
aF-0.021162803734175333
aF0.010808843653837287
aF-0.0026740566110763095
aF0.0053624527243116482
aa(lp345
F0.0053605750487330387
aF0.018904557387520862
aF-0.0019029495718363059
aF-0.020495757864633018
aF0.015085256208528321
aF0.010067065672719758
aF-0.0037968675842430873
aF0.0023821343496904118
aF-0.0009506178255410065
aF0.00523306374881075
aa(lp346
F0.00028163380281698763
aF0.027879528464067976
aF-0.0024657534246576279
aF-0.02252128536116433
aF0.0050576004495644757
aF-0.011741738887335861
aF-0.014709930110887108
aF0.010622996806029468
aF-0.0071022725255036213
aF-0.0022890414223450339
aa(lp347
F0.004579128579074495
aF0.0212131692863998
aF-0.017682397841790706
aF-0.013107288211130245
aF0.017354320311022641
aF0.0066144779751909364
aF-0.0048418317061043161
aF0.013727206841068259
aF-0.0027425316655515443
aF-0.0096253227687348539
aa(lp348
F0.0049261083743842365
aF0.024509803921568627
aF0
aF-0.023923444976076555
aF0
aF-0.0049019607843137254
aF-0.009852216748768473
aF0.0099502487562189053
aF-0.014778325123152709
aF0
aa(lp349
F0.0044843146648754547
aF0.026785772158353132
aF0
aF-0.021739176178597424
aF0.017777816017349821
aF0.0043668214559135776
aF-0.017391340942877961
aF0
aF0
aF-0.002212394118270533
aa(lp350
F0.0062054182400786591
aF0.029008704815080923
aF-0.0095449636295906332
aF-0.018153242181879106
aF0.0034238193860805042
aF0.008189278232876511
aF0.0045126602328205674
aF0.010107822825028983
aF-0.014676453246762903
aF-0.015120763639582783
aasg15
S'O'
sg17
(lp351
g19
(g21
S'\x00\x00\x00\x00\x00\x00\x00\x00'
tRp352
ag19
(g21
S' \x8d\x8eNH\xe9s?'
tRp353
ag19
(g21
S'x\x03Hv\xce0\x87?'
tRp354
ag19
(g21
S'Z\xd8!\x84\xec\x17\x93?'
tRp355
ag19
(g21
S',\xd0 \x04\xebX\x99?'
tRp356
ag19
(g21
S'\xc4\xc8\xe87\xb8\r\x9c?'
tRp357
ag19
(g21
S'\x05=\x08\xfa\x93\xd7\x98?'
tRp358
ag19
(g21
S'\xf2\xed\xb22!d\x94?'
tRp359
ag19
(g21
S'\xbbM8\xf1h\xb5\x95?'
tRp360
ag19
(g21
S'|y\xf1\xcaV_\x97?'
tRp361
asg32
(lp362
F0.0040368799879343456
aF0.02627803024523296
aF-0.0036379179566542901
aF-0.02906895139824385
aF0.011136896313811019
aF0.0087254035917377851
aF-0.0063811261931847555
aF0.010418196089624814
aF-0.0064972737359912892
aF-0.0071083313681166542
asg34
(lp363
g19
(g21
S'\x00\x00\x00\x00\x00\x00\x00\x00'
tRp364
ag19
(g21
S'\x98\xc1\x8biO\x9aj?'
tRp365
ag19
(g21
S'\xbb#\xf2$\xe7p\x85?'
tRp366
ag19
(g21
S'\xad\x1cm\xf2+%u?'
tRp367
ag19
(g21
S'\x05|\xfd\x1d\x01\x1du?'
tRp368
ag19
(g21
S'\x8c_\xdd\xc2K\xaf\x82?'
tRp369
ag19
(g21
S' \xd6*=\xed\xeb\x82?'
tRp370
ag19
(g21
S'z6\xcd[x\xc9\x92?'
tRp371
ag19
(g21
S'\xf86<\xa5\x8fE\x95?'
tRp372
ag19
(g21
S'8_\xcc\xa8\x7f\x1f\x9a?'
tRp373
asg46
g19
(g21
S'N\xf0^|\x0b\xe2\xf1?'
tRp374
sa(dp375
g3
(lp376
(lp377
F0.0073041105809813107
aF-0.02097634027129399
aF0.0076709690736777095
aF0.0018374974501376515
aF0.030394334361350674
aF0.014240249544488217
aF0.012912192267667546
aF-0.0065594753593192353
aF0.0062289763548225834
aF0.0013618980433880968
aag200
a(lp378
F0.0055327693944197433
aF-0.0031948897976726621
aF0.01014957175741788
aF0.0003525553198078447
aF0.03471366978757455
aF0.0051089885318040809
aF0.012029787924550591
aF0.000669695750133957
aF-0.00016732894644939234
aF0.009538203147624276
aa(lp379
F0.0072388603634326648
aF-0.01642706902085278
aF0.026096038277094908
aF0.016276667924249501
aF0.0080080438664080125
aF0.009930477823630381
aF0.019665666185320518
aF-0.0057858954220983078
aF-0.00096993641332829771
aF0.010679607433933711
aa(lp380
F0.0091287618305112787
aF-0.018409772071016909
aF0.0092158257560349434
aF0.0052868073958526112
aF0.016733049781883582
aF0.016144250640119668
aF0.013265468260319404
aF0.0073069841437772062
aF-0.0016623974280986691
aF-0.0016651655951014385
aa(lp381
F0.0066371681415929203
aF-0.02197802197802198
aF0.015730337078651686
aF0.011061946902654867
aF0.021881838074398249
aF0.021413276231263382
aF0.0062893081761006293
aF0.0020833333333333333
aF0.0041580041580041582
aF0.010351966873706004
aa(lp382
F0.0092009808947851462
aF-0.017754380854966265
aF0.0097704695658508665
aF0.003870333052136756
aF0.0072288839661565829
aF0.011004743280158161
aF0.025082863495973533
aF-0.0064634865578033435
aF0.013940459177320796
aF0.01329062909036809
aa(lp383
F0.011691148833845411
aF-0.0096748349076335016
aF0.004477634766107479
aF0.00972580317875236
aF0.032642164352217971
aF0.011011766972606011
aF-0.0084572442083951736
aF0.005298572092631861
aF0.002056776296471391
aF0
aa(lp384
F0.025069016019158109
aF0
aF0.010869302186766485
aF0.0080653205181913951
aF0.034665809132736286
aF0.010309031878625028
aF0.012754800206348439
aF0
aF-0.0075574331270910674
aF0.0050779108992383519
aa(lp385
F0.0028629446681821915
aF-0.013458360522022872
aF0.017362545789063908
aF0.016659853041046162
aF-0.00079936051159071038
aF0.011999959999999987
aF0.022924902091893438
aF-0.017001468972236155
aF0.002751532910710295
aF0.00039200313602501019
aasg15
S'PNR'
p386
sg17
(lp387
g19
(g21
S'\x00\x00\x00\x00\x00\x00\x00\x00'
tRp388
ag19
(g21
S'C`\xdf5\xc2\x06\x80?'
tRp389
ag19
(g21
S'\xad\x15[\xfe\x9aa\x94?'
tRp390
ag19
(g21
S'}p\xd2\xc3\xad\xdc\x98?'
tRp391
ag19
(g21
S'\x1a@\xc1\xd7%\xa3\x96?'
tRp392
ag19
(g21
S"\xa8H'!\t:\x99?"
tRp393
ag19
(g21
S'\xeb:/"\xe5Y\xa1?'
tRp394
ag19
(g21
S'pR\x8f\xee\xe1T\xa0?'
tRp395
ag19
(g21
S'\xbd\xf6\xbe@\xff#\x9a?'
tRp396
ag19
(g21
S'-\xd6\xf7F@\x96\x9a?'
tRp397
asg32
(lp398
F0.0092640417007370402
aF-0.01580826055385821
aF0.014507771519593321
aF0.0098739867254346251
aF0.035569790964261619
aF0.012534608497476812
aF0.022507989991832941
aF-0.0056603146434061587
aF0.0026881403324433744
aF0.002523261315250019
asg34
(lp399
g19
(g21
S'\x00\x00\x00\x00\x00\x00\x00\x00'
tRp400
ag19
(g21
S'kD\xe8\x8d`\x99y\xbf'
tRp401
ag19
(g21
S'\xe4j5\x11*\x92\x87\xbf'
tRp402
ag19
(g21
S'\x11\xafi\xb8\x92Xw\xbf'
tRp403
ag19
(g21
S'\xb1\xf91\x9f\xd8\xe0p?'
tRp404
ag19
(g21
S'\xee==\xde\x8a\xbcs?'
tRp405
ag19
(g21
S'+\xe9\xb8\x16\xc0#\x81?'
tRp406
ag19
(g21
S'\xcd\x14\xfa\x97\xc3\xd9\x8e?'
tRp407
ag19
(g21
S'\x08\x9c\xe4n\xa4\xd6\x90?'
tRp408
ag19
(g21
S'V\xd2\xc3-\x10\x17\x9a?'
tRp409
asg46
g19
(g21
S'\t\xfd\x06\xaf\xeaf\xef?'
tRp410
sa(dp411
g3
(lp412
(lp413
F-0.017030565194114489
aF-0.023100840631228532
aF0.011823554360592991
aF0.0076404558161976555
aF-0.0044603212791100629
aF0.0044803048782956255
aF0.00044605640969699276
aF-0.0057958566656136868
aF0.013452969315697413
aF-0.013274389362913518
aa(lp414
F-0.0045661687432181778
aF-0.022935739678067293
aF0.014084378481591053
aF0
aF-0.0046295879581801916
aF0
aF0.0046511207307071154
aF0
aF0
aF-0.0046295879581801916
aa(lp415
F-0.0060240541828606182
aF-0.024242454753693913
aF0.0062111365414024887
aF0
aF-0.0061727964597487039
aF0.0062111365414024887
aF0
aF0.012345798023047883
aF0.0060975177373215972
aF-0.012121328064037042
aa(lp416
F-0.0015171120052308727
aF-0.019373233970811903
aF0.010071679600622746
aF0.0040268223184225307
aF0.0024828200791986023
aF0.0051437850938553676
aF0.001516326381986492
aF0.0041635361431992535
aF0.00037694782938289101
aF-0.0026375831478947938
aa(lp417
F0
aF-0.018018410455940263
aF0.0091745154124052968
aF0
aF0.0090911088937435953
aF0.0045041670078913498
aF0.0044848377617962574
aF0
aF0.0089279007258884231
aF-0.013274203748886444
aa(lp418
F-0.0095920907835355448
aF-0.026634857123452441
aF-0.0024870882390756405
aF0.0024932892694944134
aF0
aF0.0074627684890627051
aF0
aF0
aF0
aF-0.0074074881201366431
aa(lp419
F-0.0062716310168596185
aF-0.0094646229522596086
aF0.012741924756689562
aF0.0062880690866702789
aF-0.015624660097021865
aF0.0095247040104307224
aF0
aF-0.0031467708658271202
aF0.0031567042909218246
aF-0.01572619262615808
aag91
a(lp420
F-0.004608310952948013
aF-0.030092610380438131
aF0.0095465728995305383
aF0.0047281488322584962
aF-0.0094117972861687289
aF0.0071258857701813399
aF0.0070754668019797221
aF0.0046838571631765526
aF0.0046620209230808923
aF0
aa(lp421
F0
aF-0.020100263075921491
aF0
aF0
aF0
aF0.0051281427881123536
aF0
aF-0.0051019791107305605
aF0.0051281427881123536
aF-0.0051019791107305605
aasg15
S'DRI'
p422
sg17
(lp423
g19
(g21
S'\x00\x00\x00\x00\x00\x00\x00\x00'
tRp424
ag19
(g21
S'\t\xa85\xa3\xa1@\x84?'
tRp425
ag19
(g21
S'\xdb\xecK\x0ev\xb7\x87?'
tRp426
ag19
(g21
S'\xd8\xd2\x04\xc12\x8a\x91?'
tRp427
ag19
(g21
S'\x85\xb7\xca\xcf\x04\xbf\x95?'
tRp428
ag19
(g21
S"'X\xe9~(T\x98?"
tRp429
ag19
(g21
S'\x95\x89\xcdd\t\xb3\x92?'
tRp430
ag19
(g21
S'\xcb\x8c\\\x85\xf8\xc5\x93?'
tRp431
ag19
(g21
S'\xba\xca\x84\x05T\xff\x92?'
tRp432
ag19
(g21
S'\xadDA\x0bK\xc0\x97?'
tRp433
asg32
(lp434
F-0.0053678576399673735
aF-0.023968229228074105
aF0.011871835982637156
aF0.006649334847572688
aF-0.00064444981472537024
aF0.0095115268339759831
aF0.0028744810423903026
aF-0.0019108121323377723
aF0.0074984365028717441
aF-0.010609690875385939
asg34
(lp435
g19
(g21
S'\x00\x00\x00\x00\x00\x00\x00\x00'
tRp436
ag19
(g21
S'\x9e\xfb\xb8`\xc1(O?'
tRp437
ag19
(g21
S'/=\xfa;\xd5\xfbt?'
tRp438
ag19
(g21
S'\xfa\xe9\xa2\xe9\x93H\x85?'
tRp439
ag19
(g21
S'\xb3\xaa(4^\x88\x8e?'
tRp440
ag19
(g21
S'\x06B\x93C\xe7\x94\x8d?'
tRp441
ag19
(g21
S'\xe3\x93w]\xc8\r\x91?'
tRp442
ag19
(g21
S'\x1aW\x10M\x88x\x95?'
tRp443
ag19
(g21
S'\x06m\xc4\xf76\x80\x94?'
tRp444
ag19
(g21
S'\x98\xfd(\xe4\x95,\x99?'
tRp445
asg46
g19
(g21
S'\xcb"\xe2\xfbg\xf5\xf0?'
tRp446
sa(dp447
g3
(lp448
(lp449
F-0.001003498286401917
aF0.013661476455394421
aF0.0020810562712393218
aF-0.0085047558747106712
aF0.031817220778601836
aF-0.0076364693286776692
aF0.0013637176627516573
aF0.0036964699984945843
aF-0.0075595911883845988
aF0.0021484528819088293
aa(lp450
F-0.0058390408280733193
aF0.0079162789355347093
aF-0.00050671803242497099
aF-0.0038023119432127116
aF0.02748095617038919
aF0.0056958842872354611
aF-0.0064024154083150665
aF0.014126381929491423
aF-0.0041544065786716794
aF-0.0076073982469214525
aa(lp451
F0.0031847123540639341
aF0.016326548234178121
aF0.0066934082033427399
aF-0.0070921889752114092
aF0.026785743330545963
aF0.014347828464187074
aF-0.0064294589195317865
aF0.0030197928537399991
aF-0.0051612958667625912
aF0.001297030964721493
aa(lp452
F0.0029291186183938852
aF-0.0053738258959772842
aF0.0038759968411457377
aF-0.0025740170729002657
aF0.025923734298987179
aF0.00068600564024276977
aF0.0020566750539521444
aF0.003876903111942965
aF-0.0022717542396298606
aF0.0031876861468028146
aa(lp453
F0.003727804774563448
aF0.012320331500992841
aF0.00055318198034808215
aF-0.0038702483253618882
aF0.014801109083450524
aF0.004010946264685498
aF0.0018158516335068208
aF0.0097879428115692085
aF0.0016155143907958371
aF-0.0034049858858101463
aa(lp454
F-0.0045289854251995398
aF0.0081892719164827956
aF0.0018952977826182573
aF0.012070948345717527
aF0.028660454448784182
aF0.0034611144760751337
aF-0.00034492540877006217
aF0.012680082808591337
aF0.004088543371575091
aF0.00042418562328266598
aa(lp455
F0.001528541928274167
aF0.0059592455926676712
aF0.0033232669312318625
aF0.016633045477610752
aF0.03626315777261388
aF0.0026655710924242569
aF0
aF0.011997335025084909
aF-0.003906785973818337
aF-0.0047336466842568294
aa(lp456
F0.0037824792083346903
aF0.0023551928891995698
aF0.0032894872461471602
aF-0.0023419551574350686
aF0.02629112992480959
aF0
aF-0.0082342596619834601
aF0.016143978236283552
aF-0.012256048175585449
aF-0.00045957716711881452
aa(lp457
F0.0052151366845177571
aF0.0059662814042561818
aF0.0056730518811089689
aF-0.0089743275280093869
aF0.023544639229692074
aF-0.002022291419235499
aF0.0078521012974173306
aF0.0090475263087308622
aF-0.0049813576927524496
aF-0.0075093529660247658
aa(lp458
F0.0024943574329156924
aF0.0066353869465962034
aF-0.00027460990716883781
aF0.0041208020446507464
aF0.015868739175450425
aF0.0048478308737638113
aF-0.0024122213955262632
aF0.0045673791393996167
aF-0.00026741232996323178
aF0.0021401250089941705
aasg15
S'GGP'
p459
sg17
(lp460
g19
(g21
S'\x00\x00\x00\x00\x00\x00\x00\x00'
tRp461
ag19
(g21
S'\xf9\x89u\x86[\xac|?'
tRp462
ag19
(g21
S'\x9cH][\xb5G\x87?'
tRp463
ag19
(g21
S',\xba\x99\xb9\xda\xdf\x89?'
tRp464
ag19
(g21
S'U\xdf\xad\xd3\x01\xd6\x8c?'
tRp465
ag19
(g21
S'H\r\xe7\x18\xf9G\x8d?'
tRp466
ag19
(g21
S'CU\xeet\x06\r\x90?'
tRp467
ag19
(g21
S'\x1d\xcfE\xa6\xb1\x91\x93?'
tRp468
ag19
(g21
S'\x0b\xed\x8ekJ\xd3\x97?'
tRp469
ag19
(g21
S'\xbfyG\xcd\x8e\x86\x96?'
tRp470
asg32
(lp471
F0.0010060535969427914
aF0.0087102332482557158
aF0.0036532340825627483
aF-0.0059562900641145769
aF0.031291581549063648
aF0.003873501201182595
aF-0.0012862281641359409
aF0.0093942338840297748
aF-0.0054557124518614152
aF0.00064536947402397959
asg34
(lp472
g19
(g21
S'\x00\x00\x00\x00\x00\x00\x00\x00'
tRp473
ag19
(g21
S'\xe5&B\xc6K\xe6q?'
tRp474
ag19
(g21
S'.\xfc\xf9[\x96\x8bu?'
tRp475
ag19
(g21
S'\xa6\t\x83\n\xe6\x97{?'
tRp476
ag19
(g21
S'\xb8\x8a\x94\x15\x1b\xa7\x80?'
tRp477
ag19
(g21
S'\xd3&\xe88\xaa\n\x8e?'
tRp478
ag19
(g21
S'@\xf1\\\x96\xf6\xcd\x90?'
tRp479
ag19
(g21
S'\xda\x05\xbd\xcd\xa3\x8d\x94?'
tRp480
ag19
(g21
S'\xc0\xb0~\x8f\xb8n\x99?'
tRp481
ag19
(g21
S'p!\xf6\xb3\x9bC\x98?'
tRp482
asg46
g19
(g21
S'\x90-\xdd\xd0\x1e<\xf1?'
tRp483
sa(dp484
g3
(lp485
(lp486
F0.0066241518946235228
aF-0.0060931022851204554
aF-0.00073563396934000656
aF0.0031902173909016843
aF0.01443247097635234
aF0.004340509985419543
aF0.0043217272241205069
aF0.0086061883807857682
aF0.0030813311945983137
aF-0.0066162366406456487
aa(lp487
F0.0037100072137659762
aF-0.0024317883253159459
aF0.0019989420213594998
aF0.0082716862928826924
aF0.018048479789361617
aF-0.0068259525607618611
aF0.016323014197727834
aF0.0070911758514964401
aF0.0013989414977702416
aF-0.0069848661233993014
aa(lp488
F0.0043553900029681975
aF-0.00074337168031345926
aF-0.010663369037757378
aF0.0038851581263436119
aF0.016978792315914849
aF0.0027007240873788457
aF0.0046522698680098035
aF0.0075554789547692524
aF0.0096758974834290305
aF-0.010301877080932857
aa(lp489
F0.0016752160408254472
aF0.0085379895384385777
aF-0.0079420839947269908
aF0.005542403546096631
aF0.024496893495269598
aF0.0012809735487783751
aF0.010746285714285715
aF0.0036283857289953199
aF-0.0006726164339564243
aF-0.01034834250085522
aag308
a(lp490
F0.0059990052585273367
aF-0.0033129263495400734
aF-0.0011633515983266144
aF0.0041597174193588726
aF0.0097763182831977161
aF0.0091893940151004435
aF0.0050406715585053739
aF0.0058242396989409209
aF0.0022519399742157598
aF-0.0049751452018940417
aag309
ag274
a(lp491
F0.0039682549722522397
aF0.0013174953878421361
aF-0.0019736428164552769
aF0.0019775457854890187
aF0
aF0.0013158457696208254
aF0.0032851658145365411
aF0.0091682779420368659
aF0.0025956625095906209
aF-0.012944960046694747
aa(lp492
F0.0031638222130103031
aF-0.00022521767034609872
aF0.00067594750107872559
aF0.011258712589924197
aF0.0022266617975195842
aF0.0057765426313059198
aF0.0077313413423888292
aF0.0037264958201950514
aF0.00021833177095754942
aF-0.0065502054561983585
aasg15
S'BMY'
p493
sg17
(lp494
g19
(g21
S'\x00\x00\x00\x00\x00\x00\x00\x00'
tRp495
ag19
(g21
S'\xa1]\x13/\xfe\x80\x91?'
tRp496
ag19
(g21
S'\x14\xcdc\x1f~\x15\x98?'
tRp497
ag19
(g21
S'@E \x81\x95\xbd\x97?'
tRp498
ag19
(g21
S"\x85\x1c5\xd4'\xe0\x96?"
tRp499
ag19
(g21
S'\x1d\xe5\xbd\xfdU\x12\x96?'
tRp500
ag19
(g21
S'\xe7\xd0*\x07:\x10\x91?'
tRp501
ag19
(g21
S'<I\xe0\xaa\xf7\xa8\x92?'
tRp502
ag19
(g21
S'\x97\xf2\x98\x86\xb1\x18\x8f?'
tRp503
ag19
(g21
S'\xd7\xfa\xfc\xa4\n\xaa\x93?'
tRp504
asg32
(lp505
F0.0031270698928455498
aF0
aF0.0010843318119317573
aF0.0029786216764334508
aF0.016198663169582669
aF0.001461211496562313
aF0.010744104135085518
aF0.004986942453554126
aF0.0024810001963699395
aF-0.010029920933825275
asg34
(lp506
g19
(g21
S'\x00\x00\x00\x00\x00\x00\x00\x00'
tRp507
ag19
(g21
S'\x9d:\xce\xe4\xd2\xec{?'
tRp508
ag19
(g21
S'zs\x18\xf7~\xfc\x89?'
tRp509
ag19
(g21
S'+\x1a\n@!\xd3\x88?'
tRp510
ag19
(g21
S'\x90\xf9\x08\x9cX\x08\x8a?'
tRp511
ag19
(g21
S'X\x0e5\x01\r\xa4\x8c?'
tRp512
ag19
(g21
S'\x1a\x1d\x04Y\xeaV\x8d?'
tRp513
ag19
(g21
S'>\x00p\xc2\x0c\xc7\x92?'
tRp514
ag19
(g21
S'\xd1\xfe\xd8\xf2J\x0f\x92?'
tRp515
ag19
(g21
S'Ba\x993\x84q\x96?'
tRp516
asg46
g19
(g21
S'\xea\x1br\x1b\xe6B\xf2?'
tRp517
sa(dp518
g3
(lp519
(lp520
F0.00094696158361377901
aF0.0049196213847356746
aF0.0080964195673358559
aF0.0028015892167008879
aF0.0044701403863262653
aF0.0020396815809374902
aF-0.0035159559344803519
aF0.0051996684424747055
aF-0.0025863559181477204
aF0.0029635343228058787
aa(lp521
F0.0020314956982867348
aF0.0035015489155902002
aF0.010101009250412938
aF0.0070908236169765007
aF0.00577738468295235
aF-0.0025129221209369604
aF-0.0055786283991956388
aF-0.0027144780557251981
aF0.00090730270097476805
aF-0.001450576211381296
aa(lp522
F-0.0048778597857461505
aF0.0073539526927938912
aF0.014596668790248011
aF0.0071952403355027856
aF0.014287677398288613
aF0
aF0
aF0
aF0.0070432076208090883
aF0
aa(lp523
F0
aF0
aF0.019230465897608878
aF0.0062895142900059207
aF0.0062502035454911091
aF0
aF0
aF-0.006211381149011163
aF0
aF0
aa(lp524
F0
aF0.0021972314714506411
aF0.0197361112117923
aF0.0086022422633713694
aF0.0021327923877736332
aF-0.0021282532654099125
aF-0.002131645020211652
aF0.0064108955493316026
aF-0.0063700577742973746
aF0.0042735470933654976
aa(lp525
F0.0033785244916570275
aF0.0033669192219103693
aF-0.0033556211166712009
aF0.010100986941810263
aF0.0099999773016675158
aF0.0033002477039849867
aF-0.0032893918959329273
aF0.0033002477039849867
aF0
aF0
aa(lp526
F-0.0029757414206441689
aF0.0029846228865928058
aF0.014879754899495402
aF0.014661593974715713
aF0.0028927966006841049
aF0.011527664060209251
aF-0.0056991487385542753
aF0.002867925137368913
aF-0.0028597236639870361
aF0
aa(lp527
F-0.0021929965385495925
aF0.0021978163421803617
aF0.013157869460722883
aF0.012987042535645343
aF0.0042734782201332578
aF0.0021276732836155634
aF-0.0063694145672321253
aF-0.0021367658490526538
aF-0.0085653119843732556
aF0
aag458
a(lp528
F0.0039336273203379631
aF0.0021294696694193305
aF0.0037398680421913606
aF0.008558248563161272
aF0.015905288783225242
aF0.0064956568715790804
aF-0.0091841838831890638
aF0.0017536470351087359
aF0.0011670449068167765
aF-0.0066610794099364662
aasg15
S'SHW'
p529
sg17
(lp530
g19
(g21
S'\x00\x00\x00\x00\x00\x00\x00\x00'
tRp531
ag19
(g21
S'\x97w\xe1x\t\xd8\x82?'
tRp532
ag19
(g21
S'\x90\x83\xe0"\xd6k\x8d?'
tRp533
ag19
(g21
S'\xe0s\xc3B&\xd7\x96?'
tRp534
ag19
(g21
S'&\x17f\x84\x0b(\x9b?'
tRp535
ag19
(g21
S'\x14\xb8m\xab[w\xa0?'
tRp536
ag19
(g21
S'J\xab_\x97\xe8D\x9a?'
tRp537
ag19
(g21
S'\xa0\x00\x01\x9f\x907\x9c?'
tRp538
ag19
(g21
S'\xf7\xe4\x0fC\xd5\xf4\x9c?'
tRp539
ag19
(g21
S'H\xf9/\xc6\xac\x1c\x96?'
tRp540
asg32
(lp541
F0.00044258860028722693
aF0.0029272159126161371
aF0.017409912883867274
aF0.0077053835373146473
aF0.014630860351588348
aF0.0021858704947297354
aF-0.004915553859724797
aF0.0039584599179180845
aF-0.0020854865545234676
aF-0.0011428767346939024
asg34
(lp542
g19
(g21
S'\x00\x00\x00\x00\x00\x00\x00\x00'
tRp543
ag19
(g21
S'\xe68\xb2\xa3\x84\x14d?'
tRp544
ag19
(g21
S'V"\xa0\xf4\x7f\x83\x82?'
tRp545
ag19
(g21
S'N\xfb}AH/w?'
tRp546
ag19
(g21
S'\xb5\xcfOR\x02\xac{?'
tRp547
ag19
(g21
S"\xef\xe5\x83s\n'q?"
tRp548
ag19
(g21
S'\xa8\x98G\xe2[\xa4\x87?'
tRp549
ag19
(g21
S'\xfc\x9b)?r\x16\x91?'
tRp550
ag19
(g21
S'\xeb\xa5\xba\xc6\xbd\xc4\x93?'
tRp551
ag19
(g21
S'\x0eh\xa9\xf3\xcc*\x96?'
tRp552
asg46
g19
(g21
S'L\x86\x01\xa08\n\xf0?'
tRp553
sa(dp554
g3
(lp555
g267
a(lp556
F-0.0028964237185289117
aF-0.0082304593191393112
aF0.0085427968389524926
aF0.0053243333316758895
aF0.0086663390701567158
aF-0.00047731377022115334
aF0.0033428690123210275
aF0.0076154154765659373
aF0.0073216951928864781
aF0.00093781519252045936
aa(lp557
F0.001956509353401208
aF-0.0091126454699034087
aF0.011605064393741846
aF-0.00043294389454702188
aF0.021004793321005383
aF-0.0069989495544478921
aF0.0064075049893580188
aF0.0055178509003018855
aF0.014352069000561058
aF-0.003329186243206942
aa(lp558
F0.00057799282412709571
aF-0.0092431917270066263
aF0.00641395073040716
aF0.004828125901758116
aF0.0088410917767736946
aF-0.0047627956730035446
aF0.0036370343279601355
aF0.010299458553515026
aF0.0096280529636031051
aF-0.00448760415539564
aa(lp559
F0.006024017591003389
aF-0.011976181120562231
aF0
aF0.0060608205063122323
aF0.012048035182006648
aF0
aF0
aF0
aF0.0059523040227236149
aF0
aa(lp560
F0.0057471198568533124
aF-0.0083809389149707599
aF0.0074913435393414007
aF0.0085796291340487357
aF0.0085065478795504895
aF0.00337395351613073
aF0.0099010291694381896
aF-0.0012948446435168111
aF0.0090757213356155927
aF0.0025697436876096639
aa(lp561
F0.0042138513093512566
aF-0.0062943094290953292
aF0.00079174440533014698
aF0.0042194916033862122
aF0.0021007838722145959
aF-0.00026199200738559133
aF0.0060288101938103193
aF0.0080770720127224908
aF0.010597042967130401
aF-0.00025572055295411882
aag274
ag486
a(lp562
F0.0037790282311396428
aF-0.010486904892076527
aF0.002445825341098236
aF0.014366904474889034
aF0.016568675049127037
aF-0.0039431946143614312
aF0.0044866001174333923
aF0.0070941567573575472
aF0.020349250860026293
aF-0.0025566562383182614
aasg15
S'ESRX'
p563
sg17
(lp564
g19
(g21
S'\x00\x00\x00\x00\x00\x00\x00\x00'
tRp565
ag19
(g21
S'\xf6dsM\xbe?\x80?'
tRp566
ag19
(g21
S'\x12\xe8\x7f\\\xa9\x1b\x85?'
tRp567
ag19
(g21
S']\xd2\xc4AT\x08\x81?'
tRp568
ag19
(g21
S'\x06\x07\x94\xd0\xd8U\x8c?'
tRp569
ag19
(g21
S'\xb3\xa9\xe1\x82\xbc\x97\x8b?'
tRp570
ag19
(g21
S'\x8a)\xdaz\x97\xa7\x8d?'
tRp571
ag19
(g21
S"sx'\x18\x006\x8b?"
tRp572
ag19
(g21
S'\x89\xeb.\xc5\xdf\\\x8c?'
tRp573
ag19
(g21
S'k\x88\xce\x11:Y\x94?'
tRp574
asg32
(lp575
F0.0063324008047862456
aF-0.0087834033663268234
aF0.0079354317162355203
aF0.004461409322417227
aF0.017896733459305061
aF0.00012836242629267092
aF0.00449119722828175
aF0.0040878769045461496
aF0.010814236916392756
aF-0.0015103210136056136
asg34
(lp576
g19
(g21
S'\x00\x00\x00\x00\x00\x00\x00\x00'
tRp577
ag19
(g21
S'\x8d\xd8\x1aw\xa4\\j?'
tRp578
ag19
(g21
S'\xfdd,\xd6\xa3,T?'
tRp579
ag19
(g21
S'\x8b\x96\x19d\xa7{[?'
tRp580
ag19
(g21
S'X\xa6\xf9`D\xc5\x82?'
tRp581
ag19
(g21
S'"\x19G\xe6]\x05\x8c?'
tRp582
ag19
(g21
S"\xad\xf5\xe5\xa9Q'\x90?"
tRp583
ag19
(g21
S':k\xc6bV\x06\x8f?'
tRp584
ag19
(g21
S'<4,.\xc7\xa2\x94?'
tRp585
ag19
(g21
S'\xf9\xcc\xf2\xfcp\xdc\x95?'
tRp586
asg46
g19
(g21
S'66\x9f5w0\xf1?'
tRp587
sa(dp588
g3
(lp589
g452
a(lp590
F-0.00095126249353861018
aF-0.010694456278642574
aF0.012603493578503336
aF-0.013256765295398145
aF0.012016729465822499
aF0.003245095125884198
aF0.0055134863025374089
aF-0.0029975394232105625
aF0.0010266118291164892
aF-0.0030766851123241812
aa(lp591
F0.0019847842885190796
aF-0.010894740728258976
aF0.0083444618822116623
aF-0.0072823192849091941
aF0.0046682098840140586
aF-0.0033189907039236199
aF0.0078810886985674605
aF-0.0061674664929180743
aF0.00066495832914923651
aF0.0025470142099521258
aa(lp592
F-0.0080323118288073772
aF-0.0056777134364704033
aF0.017588192620689381
aF-0.0038356342779237197
aF0.015591921229876673
aF-0.0018254376346035046
aF0.0021804972015380905
aF0.0064570154848750897
aF0.00025572233009360967
aF0.0033696475664146889
aa(lp593
F0.0045837214544642464
aF-0.01314510975169279
aF0.017943698287288895
aF-0.0065967474091791828
aF0.011103820737448119
aF0.00086135019726373452
aF-0.0063467786735013094
aF-0.0016239260877146009
aF0.0019518630156621013
aF-0.00054116289536489408
aa(lp594
F0.00050000043238600841
aF-0.011993986354773133
aF0.0060697531984908867
aF0.0012569956694815669
aF0.0047702232680085508
aF-0.0019990292381895825
aF0.0025038119990978586
aF0.0014984217612210573
aF0.0012469648060369556
aF0
aa(lp595
F0.0021251507255146702
aF-0.0051836963902183453
aF0.0099478453635937214
aF-0.0056284660689624863
aF0.0070754513782619512
aF-0.0028102785191065779
aF0.0004696099057639022
aF0.0051643617421043495
aF-0.0044371603942230907
aF0.0016420434180508183
aa(lp596
F0.008788393293105809
aF-0.0074673491164737992
aF0.010971795102544953
aF-0.010542598206105399
aF0.012221859032949794
aF-0.0046439297178862242
aF0.0012440940428972542
aF0.0052812014241202477
aF-0.0021631761225491693
aF0.0012388022394397291
aa(lp597
F-0.0024364674127236468
aF-0.0073275597579533693
aF0.0047156398741134056
aF0.0051023956596352301
aF0.023756279652196993
aF-0.0019835961515293943
aF0.0035770634500086411
aF-0.0043562433035634661
aF-0.0013920708271335854
aF-0.0059749312149731107
aa(lp598
F-0.0012411810392587838
aF-0.0018642644807596366
aF0.0085603590051587988
aF-0.0044753110101816299
aF0.01302117272914043
aF-0.0027544054548135949
aF0.008746348176869749
aF0.0030423672322932526
aF0.0047012076450146682
aF0.00060377665599601336
aasg15
S'HON'
p599
sg17
(lp600
g19
(g21
S'\x00\x00\x00\x00\x00\x00\x00\x00'
tRp601
ag19
(g21
S's vzo\xec\x8d?'
tRp602
ag19
(g21
S'\xcaYE~\x1c\xae\x87?'
tRp603
ag19
(g21
S'\x02:\xda\xed(k\x90?'
tRp604
ag19
(g21
S'\xfb\x10\xd7_\xa8\xf8\x90?'
tRp605
ag19
(g21
S'\xd5Xp\xc0t\xcc\x87?'
tRp606
ag19
(g21
S'@52\xf5\x9a\x1e\x8b?'
tRp607
ag19
(g21
S'a\x17(\xe6#u\x92?'
tRp608
ag19
(g21
S'\xefgh\x10/?\x97?'
tRp609
ag19
(g21
S'~A\xbft\xa90\x95?'
tRp610
asg32
(lp611
F0.0015474552957359597
aF-0.010901261802575139
aF0.01379846358244039
aF-0.0060777178565313847
aF0.023512143454378253
aF-0.0022719287200245793
aF0.0037952011470018593
aF0.00025210889561692895
aF0.00033593447284495663
aF0.0011756403115505782
asg34
(lp612
g19
(g21
S'\x00\x00\x00\x00\x00\x00\x00\x00'
tRp613
ag19
(g21
S'\xf8\x9c*\xa5H\xcd_?'
tRp614
ag19
(g21
S'\x99\xd1j B%T?'
tRp615
ag19
(g21
S'\xfdZ\x89\xc4\x9d}X?'
tRp616
ag19
(g21
S'\x82\x83Q\xff\xa3sx?'
tRp617
ag19
(g21
S'N\xa3\r}"\xdc\x81?'
tRp618
ag19
(g21
S"'/\xc5\xe2\xa9\xec\x87?"
tRp619
ag19
(g21
S'r\x8c\xba\xebF\xa1\x90?'
tRp620
ag19
(g21
S'o\xda\xfa\xb9\xe39\x92?'
tRp621
ag19
(g21
S'*L\x01\xb5\xb0\xbf\x94?'
tRp622
asg46
g19
(g21
S'\xcd\x15[\x9deU\xef?'
tRp623
sa(dp624
g3
(lp625
(lp626
F-0.0030581611466529526
aF-0.010224879833604684
aF0.0039026255601830057
aF-0.0029728104596064404
aF0.010894552014472363
aF-0.0022689152042954497
aF-0.0015918054428695808
aF-0.0050107674608265446
aF-0.0057227881729156587
aF0.0018417970225604069
aa(lp627
F-0.0014469595931305436
aF-0.018193530635764281
aF0.0054116300704646477
aF-0.00619802646623071
aF0.01116036248068036
aF-0.0032462471240941788
aF-0.0040709993559521285
aF0.0040876401363144285
aF-0.001302687665136897
aF-0.0029349374883548898
aa(lp628
F-0.00034051371248472722
aF-0.0086274811426686904
aF0.0041222991134679124
aF-0.0093511101985097583
aF0.010192239627325477
aF0.0047007107922414117
aF-0.006162284816693577
aF0.00080385811477131546
aF0.0037860714187208989
aF0.0013716196450249886
aa(lp629
F-0.0047418393628623932
aF-0.0069930296541029459
aF0.0024763335604302984
aF-0.0054808691120234706
aF0.0042948462998218129
aF7.7708394836138863e-05
aF0.0049758920637109324
aF-0.0048738159131297681
aF0.0061415930971330454
aF-0.0039406157059208033
aa(lp630
F-0.0012611196623603627
aF-0.00050495289252635331
aF0.0022737660231924948
aF-0.0017645458600029969
aF0.010353526663834869
aF-0.0052486528901597362
aF0.00050252045291595984
aF-0.0017578988205558487
aF0.010062919437283132
aF-0.0024906990174967136
aa(lp631
F0
aF-0.018264919514246646
aF0.0046512668441470919
aF-0.0092591330867022505
aF0.018691331701193546
aF0
aF0
aF0
aF0.0045872586831900916
aF-0.0045663118295996069
aa(lp632
F-0.001846930290600887
aF-0.0061677328839404646
aF-0.0018618310303863592
aF-0.0055958648763415235
aF0.013338901104120528
aF-0.0041135597881407594
aF0.0014457605739059043
aF0.002062247320152079
aF-0.0065857219370845637
aF0.00020713888900210015
aa(lp633
F0
aF-0.011906035280327139
aF0
aF-0.0060230745022063232
aF0.0045438367407430952
aF-0.0015055258498901292
aF0.001507795875557138
aF0.0075443945707182733
aF0
aF-0.0029951611507630172
aa(lp634
F-0.0020005494450409519
aF-0.0070157387566021972
aF-0.0052991106988068771
aF-0.0086249689017388279
aF0.0089559540439272112
aF-0.0015217150150399726
aF-0.0091440212413098666
aF0.0033324983324926724
aF0.0048544195540942388
aF-0.0027968471770798429
aa(lp635
F-0.0043485894356483984
aF-0.010750883876558683
aF0.0028867709839126895
aF-0.00033864149074503872
aF0.0028793657704432362
aF-0.0011822161250246437
aF0.0028745678347561021
aF0.0035641719514208172
aF-0.00050738922565600258
aF-0.00067676864872924633
aasg15
S'CB'
p636
sg17
(lp637
g19
(g21
S'\x00\x00\x00\x00\x00\x00\x00\x00'
tRp638
ag19
(g21
S'6\xfc\xa1\xa57\x83\x90?'
tRp639
ag19
(g21
S'\xd8\xe6\xd3\xf2\xb8\x82\x8d?'
tRp640
ag19
(g21
S'A\xd1\xc6\xee\xb4\x18\x8d?'
tRp641
ag19
(g21
S'`\xf3\xe5v^\x92\x8c?'
tRp642
ag19
(g21
S'}$\xe9\xbd_\x0b\x8f?'
tRp643
ag19
(g21
S't\xaeSI\xd5\xff\x8e?'
tRp644
ag19
(g21
S'I]\x7f\xdf\xab\xfa\x90?'
tRp645
ag19
(g21
S'\xdd\xe75R\xec\xd2\x93?'
tRp646
ag19
(g21
S'7\xed\xf4Zk\xc0\x92?'
tRp647
asg32
(lp648
F-0.0029837042239618762
aF-0.010282465684643525
aF0.0027911304943753733
aF-0.0054893383482090274
aF0.012516519765353232
aF-0.0022267198162346531
aF-0.002385517561805002
aF-0.0010799059015727769
aF0.0030887567567566983
aF-0.0025403157447412084
asg34
(lp649
g19
(g21
S'\x00\x00\x00\x00\x00\x00\x00\x00'
tRp650
ag19
(g21
S')\xa2f\x85\x9e\xdd\x85?'
tRp651
ag19
(g21
S'>k\xc4\x0c\xea \x8b?'
tRp652
ag19
(g21
S"c\x13H'\xc5[\x89?"
tRp653
ag19
(g21
S'\xd0\xae\xe6\xe8\xacb\x90?'
tRp654
ag19
(g21
S'\xc1\x8a\x95\x11\x0e\xa0\x90?'
tRp655
ag19
(g21
S'^\xc3\x08\x84\x82\xef\x92?'
tRp656
ag19
(g21
S'\x13g\x0e\x95\xc1\xd6\x8e?'
tRp657
ag19
(g21
S'\x86\x1e\x04\xd6\x84\xf1\x8b?'
tRp658
ag19
(g21
S'\x84\x8a\x10\xa89l\x93?'
tRp659
asg46
g19
(g21
S'\n\xa1\xf5H\x98\x92\xf0?'
tRp660
sa(dp661
g3
(lp662
(lp663
F-0.0053776954001969702
aF0.0050205973223479191
aF0.011400012809017588
aF0.0017730370032046619
aF0.0087231734190436304
aF-0.010026356560642276
aF-0.01721738238302015
aF0.012752879534440712
aF-0.013609767987416551
aF0.0049000256002569463
aa(lp664
F-0.0079102618286206565
aF0.0055370983150787017
aF0.0050660570455481344
aF-0.0072321278274791257
aF0.015673267454156089
aF0.00021738753390078533
aF-0.023902694480660656
aF0.021371394540133336
aF-0.0013077811397606497
aF0.0069838280226975731
aa(lp665
F8.8308698427540122e-05
aF0.01860827017911201
aF0.012813739752160576
aF-0.0067531914366299574
aF0.0018933686110668457
aF0.0012885304083938328
aF-0.025308757218483042
aF0.02209319118640287
aF-0.0038752156240275909
aF0.0017288175981145092
aa(lp666
F-0.0026713090402951489
aF0.010195273531458392
aF0.010947640865853869
aF-0.0033840450919981704
aF0.011375185703158715
aF0.0020144212584196773
aF-0.0073714002855426617
aF0.0062447077586340579
aF-0.00075474700373576089
aF0.005539200020626983
aa(lp667
F-0.0055568969726308912
aF0.0046160994188995568
aF0.012817466669389
aF-0.0028653976583876066
aF0.0088602369773597735
aF-0.0059340283240854287
aF-0.0050143876744863187
aF0.0074394413493986218
aF-0.0059552057984482432
aF0.0035945504204386372
aa(lp668
F-0.0075469715434139852
aF0.0057036461668908472
aF0.0056710859650105716
aF-0.0018805497037086272
aF0.011299886049963657
aF0.011173625356668134
aF-0.020257856329713306
aF0.022556212521189022
aF-0.0091907772245793141
aF0.0037097431375190649
aa(lp669
F-0.0014749555985999791
aF0.0093550111051729414
aF0.0092683304612888578
aF-0.0067666156606415728
aF0.0055961698187699041
aF0.0024195252511299407
aF-0.02413709486431664
aF-0.005936229680374377
aF-0.019159002461778832
aF0.007610425550525499
aa(lp670
F-0.0026479925416997736
aF0.018332346694796317
aF0.0045316964351614251
aF-0.00037086013976932007
aF0.0078511638922740285
aF0.0046616865209106097
aF-0.021063540524072694
aF0.00049894879468897221
aF-0.0074180388752497183
aF0.0077875115686375325
aa(lp671
F0
aF0.0018979149562503741
aF0.0056800061421434381
aF0.0094195717442210093
aF0.0093273080833276394
aF0
aF-0.022181265886991239
aF0.0056692667384841584
aF-0.0018800793648466529
aF0.0094195717442210093
aa(lp672
F-0.007481247255922612
aF0.0085427135678392829
aF0.0064773791728948696
aF-0.0044554453239878484
aF0.0044753851578624914
aF0.00049495047054698199
aF-0.0014843642495974447
aF0.0084241823587711453
aF-0.0078623587223588531
aF-0.00049534420528255744
aasg15
S'KHC'
p673
sg17
(lp674
g19
(g21
S'\x00\x00\x00\x00\x00\x00\x00\x00'
tRp675
ag19
(g21
S'`\x1f\x06\xbc\xae\x1f\x90?'
tRp676
ag19
(g21
S'\xf4\xa3\xecm\x86\xc4\x91?'
tRp677
ag19
(g21
S'\x94s5\x05\xa7\xa4\x95?'
tRp678
ag19
(g21
S'\xfc\x9d\x08\xbf\xab\xf4\x95?'
tRp679
ag19
(g21
S'\r\xbb\r\x88\xc9\xa5\x91?'
tRp680
ag19
(g21
S'x\xa5\xa4;s\x9a\x8e?'
tRp681
ag19
(g21
S'-`\xa9\xb4\x91\xfc\x92?'
tRp682
ag19
(g21
S'\x83\x11wWAi\x9b?'
tRp683
ag19
(g21
S'&\xed\xb7\xf6\xdd\x1d\x92?'
tRp684
asg32
(lp685
F-0.0027125338139963274
aF0.0056663645889928511
aF0.011268875620213559
aF-0.0047916203430270502
aF0.0060463555267351622
aF-0.00011131886725250753
aF-0.022706957823105819
aF0.013895147589004066
aF-0.0076387443598768517
aF0.0058864050661718119
asg34
(lp686
g19
(g21
S'\x00\x00\x00\x00\x00\x00\x00\x00'
tRp687
ag19
(g21
S'*\x0c\x10\x85r\xa9/?'
tRp688
ag19
(g21
S'\xebf\xdb\xd8\x06\xc0k\xbf'
tRp689
ag19
(g21
S'\xba\x9c\x99B{\xc3e?'
tRp690
ag19
(g21
S'\xfe\xf31QL\xb7\x82?'
tRp691
ag19
(g21
S'\xc3^\x9d\xe9\r\xfc}?'
tRp692
ag19
(g21
S'\xa6D$gaI\x83?'
tRp693
ag19
(g21
S'\xf2\xfa@n[~\x88?'
tRp694
ag19
(g21
S'\xee\xdf\x0c\xacC\x9a\x90?'
tRp695
ag19
(g21
S'eR\xffQ\x06\x02\x92?'
tRp696
asg46
g19
(g21
S'7\xf98<\xd2\xce\xef?'
tRp697
sa(dp698
g3
(lp699
(lp700
F0.0020802383767617588
aF0.0056346066669074905
aF-0.0067826567519310632
aF-0.0017814954682426607
aF0.0095181362320740856
aF0.0053034676400610216
aF-0.0043961899329466973
aF-0.001766286906382703
aF0.010026527683042743
aF-0.0020437581457899549
aa(lp701
F0.0030882162079596005
aF0.0044256154030332465
aF-0.010919540159845078
aF-0.0025179415037575904
aF0.012233039199101067
aF0.0026855865447561948
aF0.0026783934872452861
aF0.0026712186282627673
aF-0.00019026275185152748
aF0.0079938881544206111
aa(lp702
F-0.0018832606798252784
aF0.0037736155384025523
aF-0.0037594288990934139
aF0.0056604170342832247
aF0.011257051728005184
aF0.0055658890767849361
aF-0.0036900542850190105
aF0.0074074547490300333
aF0
aF-0.0036765000240990379
aa(lp703
F0.0012995113459597799
aF0.0084360591105843933
aF-0.0019304518062971589
aF-0.0032237082920125765
aF0.0097024025917251192
aF0.0064061788083893921
aF0.00063652068310524317
aF0.0050890555629905737
aF0.0012657898894277244
aF-0.011377964193327112
aa(lp704
F-0.0044728293616210831
aF0.0016045771703660776
aF-0.0038448705041799346
aF-0.0012866272908038752
aF0.0061192071815765739
aF0.0064020429372465756
aF-0.0034987263239184322
aF0.0025534404682598247
aF0.0022285826043744556
aF-0.0006353268524738687
aag458
ag525
a(lp705
F0.0011341899845632092
aF0.0064199300730045511
aF-0.0071294631451586082
aF-0.0071806068035797973
aF0.0091358946758917196
aF0.0082987367548042895
aF-0.0052375765630113752
aF0.0022564870416688981
aF0
aF-0.011257033857317468
aa(lp706
F0.0051086225860760316
aF0.002591213447907532
aF0.00059647431808469882
aF0.0034770376283018694
aF0.0096030224688908646
aF0.0076485375281914554
aF0.0020435945856044084
aF0.0031076966060465876
aF-0.0030012371708994104
aF-0.00213635181537246
aa(lp707
F0.0022843275164380439
aF0.0034186403110937074
aF-0.0089106615996109705
aF-0.0033494710273864305
aF0.0024763325327273097
aF0.0067931575969084708
aF-0.0012267740593919418
aF0.0010527751975144817
aF-0.0092024185408744429
aF-0.0042459389979087369
aasg15
S'FISV'
p708
sg17
(lp709
g19
(g21
S'\x00\x00\x00\x00\x00\x00\x00\x00'
tRp710
ag19
(g21
S'\x01\xcd\xce_\xc9o\x81?'
tRp711
ag19
(g21
S'o\x05\xf6\xed\xcaQ~?'
tRp712
ag19
(g21
S"\xe7J\xf2'\x9c\x19\x84?"
tRp713
ag19
(g21
S'\xcb\x01\x94\x05x\xc9\x81?'
tRp714
ag19
(g21
S'\xf9/\xca\xb0\xfd\xb9\x81?'
tRp715
ag19
(g21
S'Q\xd7\xd6\x19\t8y?'
tRp716
ag19
(g21
S'\xd7\xe9\xb3SxC\x87?'
tRp717
ag19
(g21
S',vz\xc1I\x91\x92?'
tRp718
ag19
(g21
S'\xe2w\x99\xa4P]\x90?'
tRp719
asg32
(lp720
F0.0016554860207260759
aF0.0047745476163971691
aF-0.0065795577081240106
aF-0.002575650837785303
aF0.011620418703310891
aF0.0055611358271285003
aF-0.0009972891841172199
aF0.0034485705881009627
aF-0.00018085375780039239
aF-0.001899656212582866
asg34
(lp721
g19
(g21
S'\x00\x00\x00\x00\x00\x00\x00\x00'
tRp722
ag19
(g21
S'&4\xa9\r\xb1\x10a?'
tRp723
ag19
(g21
S"1'\xea7\x1flt?"
tRp724
ag19
(g21
S'\xaa\xc5\xaa\t\xe9\xc7q?'
tRp725
ag19
(g21
S'\xc2\x0bQ\xf4\x1a\x0bj?'
tRp726
ag19
(g21
S'\x8e6\x7f\x89\xfe\xee{?'
tRp727
ag19
(g21
S'\x8fp\x19\x9d\xa8%\x86?'
tRp728
ag19
(g21
S'\x13"O\xbdu\xce\x84?'
tRp729
ag19
(g21
S'\xfbpX\x80\xbf\x12\x88?'
tRp730
ag19
(g21
S'\xe2\xcd\xaf\t3\t\x91?'
tRp731
asg46
g19
(g21
S"\xa8\xd0'C\x0e\xa8\xf0?"
tRp732
sa(dp733
g3
(lp734
g557
a(lp735
F-0.00088697703533927735
aF-0.00088791675552371649
aF0.0093306416839460775
aF-0.0079237030218217257
aF0.0073953482955683133
aF-0.00058729798636392681
aF0.0047010390257709051
aF0.0042404101604425299
aF0.0066977086885443501
aF-0.004483626931062675
aa(lp736
F-0.0022183370709130956
aF0.005780398186484393
aF0.008841691370485882
aF-0.014899214320249423
aF0.013404831541486879
aF-0.0039682238459699468
aF0.001770640938706133
aF0.01016355447253476
aF0.016622910693033444
aF-0.00043032382566529799
aag598
a(lp737
F0
aF0.0027176793090550734
aF0
aF-0.0054206270920200608
aF0.0081752556502922551
aF-0.0054059752041947379
aF0.0081526960377062401
aF0.0053883520168423026
aF0.01340593532405274
aF-0.01322859365311096
aa(lp738
F0
aF0.0065788046910180628
aF0.013072036243290423
aF-0.0064514730050204121
aF0.01298672954512451
aF0
aF0
aF0.0064105326310695092
aF0.0063692877727460828
aF0
aa(lp739
F0.0051176046510949189
aF0.0025459268098740337
aF0.014220314158440248
aF0.0020030546821760069
aF0.01249375312343828
aF-0.00049358341559731309
aF0.012345679012345678
aF-0.0014634634146340787
aF0.0087934054124769213
aF-0.0077481840193704679
aag270
a(lp740
F-0.00057377705556886638
aF-0.0013394504110198081
aF0.014945447099970994
aF-0.01340387327619561
aF0.01109839346724722
aF0.0058667960972849306
aF0.0206961129599634
aF0.0016589893375845268
aF0.012513808960942816
aF-0.0076336272115200537
aag207
asg15
S'ZTS'
p741
sg17
(lp742
g19
(g21
S'\x00\x00\x00\x00\x00\x00\x00\x00'
tRp743
ag19
(g21
S'\x18\x1d\x9bu\x90\x0e\x85?'
tRp744
ag19
(g21
S'B\xb2\xaf\x0b\xb0d\x8b?'
tRp745
ag19
(g21
S'\xca\x87!!\x10\x10\x8c?'
tRp746
ag19
(g21
S'b\xe4\x08\xd3\r\xbd\x89?'
tRp747
ag19
(g21
S'\x8c\xcfk\xc5_B\x96?'
tRp748
ag19
(g21
S'\x121JU=:\x91?'
tRp749
ag19
(g21
S'\x93\x1cz\xbbp\x1d\x98?'
tRp750
ag19
(g21
S'R\xef~\xa4t.\x89?'
tRp751
ag19
(g21
S'\xb4\x9e\x81\xe0\xd9\xb1\x92?'
tRp752
asg32
(lp753
F-0.00021066161421543771
aF0.001053719682745627
aF0.012421052631579018
aF-0.0083177583697234998
aF0.016984714132621384
aF-0.0043298762886598632
aF0.012010726609842136
aF0.0065479845825247565
aF0.016060195488111245
aF-0.0060024009603840975
asg34
(lp754
g19
(g21
S'\x00\x00\x00\x00\x00\x00\x00\x00'
tRp755
ag19
(g21
S'\xea\xbb\xf5\xab\x9a\x9fO\xbf'
tRp756
ag19
(g21
S'\xe3K&\x1f\xab\x82c?'
tRp757
ag19
(g21
S'\xb3\x16\xb4\xc6&yZ\xbf'
tRp758
ag19
(g21
S'\x9f\x9f\xa4tQ4d\xbf'
tRp759
ag19
(g21
S'\x0bd\xb0\x9a\xdc\xb3w?'
tRp760
ag19
(g21
S'r\xb9\xc11ktw?'
tRp761
ag19
(g21
S':\xf2\x08o\x1a4\x8c?'
tRp762
ag19
(g21
S'(\xe6\xab\xbe\x96\x93\x8b?'
tRp763
ag19
(g21
S'\xd3\xfa^~R\xa8\x90?'
tRp764
asg46
g19
(g21
S'x\x03p\xedJ\x83\xec?'
tRp765
sa(dp766
g3
(lp767
(lp768
F-0.0018100063319492492
aF0.0077062859089973429
aF0.0017993796896204886
aF-0.0060619620632142547
aF0.0019479400538133056
aF-0.014867350612977831
aF-0.0025539854687546275
aF0.0030260905379377433
aF-0.004177320712094262
aF0.007457471810636984
aa(lp769
F0
aF0
aF-0.0034722237475128814
aF-0.0034843220934295599
aF0.0069930100864028606
aF-0.006944447495025651
aF0
aF0
aF-0.0034965050432013743
aF0.0070175469747910078
aa(lp770
F0.0043122669557042357
aF0.016949133132284033
aF-0.0046666422436857074
aF-0.0087072859033307214
aF0.004954910325749004
aF-0.015463895354855674
aF0.0061461443767652137
aF-0.0011311960291026824
aF0.00022645634286560707
aF0.0040760970080177964
aa(lp771
F-0.0021186578804215138
aF0.010615700933730611
aF-0.011554598909329819
aF-0.0010626862452658072
aF0.0095744705059430217
aF-0.005268718399681213
aF0
aF-0.00042373157608430271
aF-0.0010597581164836921
aF0.010821103943542798
aa(lp772
F-0.0037424284199115009
aF0.013147958644219488
aF-0.010752690630763184
aF0.0041229586130956423
aF0.0093318771357707494
aF-0.0051775770395447729
aF0
aF-0.0029739546843420214
aF-0.0063385673617241184
aF0.0018761985705735102
aa(lp773
F-0.0020783756356411061
aF0.01338889198454392
aF-0.0024956752707133403
aF-0.0032375827265743833
aF0.0038386890096455931
aF-0.0051477933716582974
aF0.0081313258494900651
aF-0.00087996816430642455
aF-0.0035226492773985014
aF0.000147336503515165
aa(lp774
F-0.0086232745716955123
aF0.012297528225930639
aF-0.0094814696902229909
aF0.0053843848581560131
aF0.0074382730416250519
aF-0.006792663998944147
aF-0.0029736136087908033
aF0.00089478850380042281
aF0.001489857538073978
aF0.0059506318769543274
aa(lp775
F-0.0093466160332648304
aF0.0094347994813680225
aF-0.0093466160332648304
aF0.0047172743946035768
aF0.0046953757111491985
aF-0.014019799875378386
aF0
aF0
aF0
aF0.0094792650836658787
aa(lp776
F-0.0015318627732572815
aF0.011537312271322172
aF-0.011587720541312709
aF-0.0023938068057181594
aF0.0071986587534526008
aF-0.0038484423429769048
aF0.0019010117538046547
aF-0.0046517932227999534
aF-0.0096543601541740614
aF0.011487059705301518
aa(lp777
F-0.0058140257497771965
aF0
aF0
aF0
aF0.005848026325418555
aF-0.011628051499554259
aF-0.0058824269128621874
aF0
aF-0.0059169260862456117
aF0.0059521444852193087
aasg15
S'CCI'
p778
sg17
(lp779
g19
(g21
S'\x00\x00\x00\x00\x00\x00\x00\x00'
tRp780
ag19
(g21
S'\xcc\x12\x00\x06\xb7\x8e\x84?'
tRp781
ag19
(g21
S'sH\x1e\xb77\xdc\x8f?'
tRp782
ag19
(g21
S'\x88\xfd\xb4\xbe?\xdf\x90?'
tRp783
ag19
(g21
S'\x94\x03S\xea\x05\xd5\x90?'
tRp784
ag19
(g21
S'v\xcb\xa9\x83\xc2\xb8\x8c?'
tRp785
ag19
(g21
S'\x17\xd9\xf8\x90\xd5\x89\x8d?'
tRp786
ag19
(g21
S'\x14\x15t,\xdcq\x93?'
tRp787
ag19
(g21
S'\xfca\xe6\x97|6\x94?'
tRp788
ag19
(g21
S'*\x944\x984\xac\x8e?'
tRp789
asg32
(lp790
F-0.0024647540175490486
aF0.013639039335836985
aF-0.0062402497316740042
aF-0.0040227237838054769
aF0.0067973104758681426
aF-0.016242622785986899
aF-0.0038790431283166893
aF-0.0034947478083924236
aF-0.0033066331671353501
aF0.0064341006692057896
asg34
(lp791
g19
(g21
S'\x00\x00\x00\x00\x00\x00\x00\x00'
tRp792
ag19
(g21
S'\xfa6\x8c?\xb1\xcbo?'
tRp793
ag19
(g21
S'\xed\xe5\xae%\xfa\x83\x86?'
tRp794
ag19
(g21
S'vN\xb4\xcf\x96\xcf\x86?'
tRp795
ag19
(g21
S'\x92@\x07\xf5\xc7\xe9\x84?'
tRp796
ag19
(g21
S'\xa0\x99\xcd\xb9.\x12|?'
tRp797
ag19
(g21
S'\x1f\xd5\xa0\x8a.@\x87?'
tRp798
ag19
(g21
S'\x16\xaa\x07\xfa\x16\x80\x8b?'
tRp799
ag19
(g21
S'\xe3\x88\x91t\x14x\x8c?'
tRp800
ag19
(g21
S'\xf0\x18O\xacx\xf7\x8e?'
tRp801
asg46
g19
(g21
S"\xbf\xdd\xc3\xf0B'\xf0?"
tRp802
sa(dp803
g3
(lp804
(lp805
F0.014150929580839853
aF-0.016744239939453544
aF0.022942807152394669
aF0.012253835033417999
aF0.0059390286429584953
aF-0.00045432861006461297
aF0.0054520277805846671
aF-0.0027112321771429354
aF0.0067965073522829609
aF-0.0090006379731726593
aa(lp806
F0.012381185054167583
aF-0.026861759623023309
aF0.029398518191236133
aF0.016350556275355491
aF0.018018018404504971
aF-0.0077960178633800633
aF0.0093437884901251458
aF0.001262381680252231
aF0.023744505148140364
aF-0.012931054742794443
aa(lp807
F0.0046659734393805115
aF-0.0085553250487153485
aF0.024408232632409259
aF0.0057762019967785051
aF0.016032511942355283
aF-0.0042392925141197055
aF0.022469271737006552
aF0.0016192333023264623
aF-0.0031177428167765068
aF-0.010772626487185164
aa(lp808
F0.0096450268678278904
aF-0.014520380903849944
aF0.02365252392266393
aF0.012500004819177724
aF0.001122354114061714
aF0.010837034468203409
aF0.0066543350443583867
aF0.00036726229775286493
aF0.0073421756680222289
aF-0.011661791719559245
aa(lp809
F-0.0090277644856423395
aF-0.036206551715124886
aF0.023024712314480639
aF0.0092395036104648918
aF0.011032916040567685
aF-0.0074297677452565538
aF0.0081870888829497397
aF0
aF0.0020881836922057475
aF-0.01203982804708747
aa(lp810
F0.011059706962139662
aF-0.018297487043834861
aF0.018030774351076147
aF0.0021890681048629844
aF0.013304184295063757
aF0.0041152755126073453
aF0.00078058976290291775
aF-0.0054602096370827231
aF0.0035294278135029607
aF-0.0013677245922866486
aa(lp811
F0.0058205402473498922
aF-0.01687829228459968
aF0.0098103055816858888
aF0.013924876351580772
aF0.012136729529338941
aF0.0029977787654514657
aF0.0072360981248746729
aF0.0020303781538239321
aF-0.001714478485640485
aF-0.00015615255414110161
aa(lp812
F0.00045683720539667008
aF-0.015068491003516512
aF0.033379761527259737
aF0.0080752803603200331
aF0.013573682731875024
aF0.0050493829894606478
aF-0.0017474445030055763
aF0.0035010795114290847
aF0.00065895653793970888
aF-0.0072432418789390605
aa(lp813
F0.015341098746170938
aF-0.024055658318936069
aF0.0038704162318812085
aF0.0064934989459031634
aF0.022983949409959625
aF0.004729949182900193
aF0.0015692818381398477
aF0.00724634754696261
aF0.0093330629306820814
aF-0.0023116705164414799
aa(lp814
F0.0087548995128224599
aF-0.013018348458173427
aF0.02638012254399388
aF0.010947134247834917
aF0.0098870713195271694
aF-0.006993060237431353
aF0.0037558325946052389
aF0.0070160076849190645
aF0.0092892994136284032
aF-0.0124252436561515
aasg15
S'VFC'
p815
sg17
(lp816
g19
(g21
S'\x00\x00\x00\x00\x00\x00\x00\x00'
tRp817
ag19
(g21
S'/\xc0\xbc&\x99n|?'
tRp818
ag19
(g21
S'\xebs\x8a\xdb\xa1y\x86?'
tRp819
ag19
(g21
S'\xa2F#H\xeb~\x87?'
tRp820
ag19
(g21
S'\x1a\xd8\x96\x18\xdc\x1d\x8f?'
tRp821
ag19
(g21
S'~\x86Pf5\xc4\x92?'
tRp822
ag19
(g21
S'\x05n\x9b\xfaxj\x8e?'
tRp823
ag19
(g21
S'\xa3}\xf4e!\xac\x8d?'
tRp824
ag19
(g21
S'H\xff\xfd\x0b\xa9\xca\x93?'
tRp825
ag19
(g21
S'\xd7\xc5\x1c\x816R\x91?'
tRp826
asg32
(lp827
F0.013172824421114879
aF-0.02471911757173538
aF0.023699852656347966
aF0.008681687963316859
aF0.020879836758691959
aF0.00093673688040253654
aF0.0079551082833394446
aF0.0015474774892845389
aF0
aF-0.010661340997197956
asg34
(lp828
g19
(g21
S'\x00\x00\x00\x00\x00\x00\x00\x00'
tRp829
ag19
(g21
S')j\xf3\x1b\x94\xa6s?'
tRp830
ag19
(g21
S'\xa8V_\xfch\x12\x86?'
tRp831
ag19
(g21
S'U\xec\xe8z\xf8&\x8e?'
tRp832
ag19
(g21
S'\xaa\x17\xb0\x8a~e\x8c?'
tRp833
ag19
(g21
S'C\x90\xf50\x96p\x8a?'
tRp834
ag19
(g21
S'\xdfi\x85\xfb\xb0\n\x85?'
tRp835
ag19
(g21
S'H\x93\x13\xe7Z\xde\x8d?'
tRp836
ag19
(g21
S'\x1d\xe2\xff\xad\xea\x8f\x8e?'
tRp837
ag19
(g21
S'\xda\x15\x0c\xe8E\x8c\x8e?'
tRp838
asg46
g19
(g21
S'\xf1\xdf\xa3$\xcb7\xec?'
tRp839
sa(dp840
g15
S'SPXLINE'
p841
sg34
(lp842
g19
(g21
S'\x00\x00\x00\x00\x00\x00\x00\x00'
tRp843
ag19
(g21
S'V.\x1c\xb3\xdf\xa0G?'
tRp844
ag19
(g21
S'~\x94\x93\t\x15\x07Y?'
tRp845
ag19
(g21
S'\xa8U\xc0\xb6H+V?'
tRp846
ag19
(g21
S'+\xd1r2K\x82W?'
tRp847
ag19
(g21
S'\x11\x1a8\xac\x12\x03N?'
tRp848
ag19
(g21
S"'\xe7\x90\x0b\x0f\xe1a?"
tRp849
ag19
(g21
S'S*\xa7\x1d\xa3gf?'
tRp850
ag19
(g21
S"\xdd\xb6\x13'Z\xe7i?"
tRp851
ag19
(g21
S'1\x0e9v\xd2>n?'
tRp852
asa.