(lp1
(dp2
S'matches'
p3
(lp4
(lp5
F-0.0081783247004280149
aF-0.016720100556218139
aF0.0023293820829531609
aF0.0074363312502331953
aF0.00069227675341584298
aF0.0073766766312107655
aF-0.011212755398438034
aF-0.011571362539569176
aF0.0067900931629230037
aF0.0062788197129563725
aa(lp6
F-0.019058945008151237
aF-0.023477029047049264
aF-0.0006217401778435568
aF0.0060140351383409455
aF-0.0049473956072968702
aF0.012844403164994906
aF-0.012681516652368292
aF-0.020924010227339578
aF0.0090986227545916971
aF0.003354990295371927
aa(lp7
F-0.010723861117189096
aF-0.0027100438053159893
aF0
aF0
aF-0.019021723779291407
aF0.0055402003615689296
aF-0.0082645134817734816
aF-0.0083333169149008932
aF0.011204482368425035
aF0.011080332972992858
aa(lp8
F-0.011111116104091372
aF-0.023945463107089667
aF0.00037736022545626746
aF0.0064138867992668408
aF-0.01518270716380212
aF0.029311005878627686
aF-0.013128743114790037
aF0.00037475044484406548
aF0.0073047325089331391
aF-0.0018594100450995119
aa(lp9
F-0.0054945508792766627
aF-0.016574522354812625
aF0.00068089621934708721
aF0.0006805350107135698
aF-0.011900736326006928
aF0.014796984088309914
aF-0.012885708505381611
aF0.00017176162002239292
aF0.002576016198815406
aF-0.0085645780133307876
aa(lp10
F-0.018867911718118611
aF-0.011538465588606857
aF0.0027561000873298326
aF-0.0027485248776744457
aF-0.0077820836388165652
aF0.0078431194503685627
aF-0.009079107724619534
aF-0.0013089078007275851
aF0.0091743014861081652
aF0.0051948036907193485
aa(lp11
F-0.0069930127740907141
aF-0.0070422593839209327
aF0.0070922045278095864
aF0.0070422593839209327
aF-0.0069930127740907141
aF0.0070422593839209327
aF-0.013986025548181428
aF-0.0070922045278095864
aF0.0071428631743562804
aF-0.0070922045278095864
aa(lp12
F-0.0097093961164164983
aF-0.017647560292039663
aF0.0039931306522013226
aF-0.0039772489773982371
aF-0.0099795292476360931
aF0.0040323221618757061
aF-0.0020087424476139962
aF-0.006035486186990493
aF0.0121456369843409
aF0.0019995062057680617
aa(lp13
F-0.0041306095931860042
aF-0.01244794890347636
aF0.0042000239812211102
aF0.004184655189906435
aF-0.01249982674590876
aF0.0042203350264905671
aF-0.012605221285614115
aF-0.012765768816284979
aF-0.0043112865073636963
aF-0.0086572556670066764
aa(lp14
F-0.0041908529717758309
aF-0.021043474230226799
aF0.0034394329259795123
aF0
aF-0.025707551593280586
aF0.0087956711678968038
aF-0.017436752150667326
aF-0.015084637462285734
aF0.0036035809044720119
aF-0.0053860015885119237
aasS'symbol'
p15
S'PDCO'
p16
sS'stDev'
p17
(lp18
cnumpy.core.multiarray
scalar
p19
(cnumpy
dtype
p20
(S'f8'
I0
I1
tRp21
(I3
S'<'
NNNI-1
I-1
I0
tbS'\x00\x00\x00\x00\x00\x00\x00\x00'
tRp22
ag19
(g21
S'\xa9\xb6Jc\t~\x92?'
tRp23
ag19
(g21
S"'\xfe\x97\x12*\xc8\x94?"
tRp24
ag19
(g21
S'\xe2\x88\x91\xcd\xd4\xa8\x9c?'
tRp25
ag19
(g21
S'|{!\x9f\xa5\xf1\x9d?'
tRp26
ag19
(g21
S'\x10\x8c\xe9N\x9b%\xa2?'
tRp27
ag19
(g21
S'\xd2\x85\xde\x03\xd4\x93\xa2?'
tRp28
ag19
(g21
S'\xd4\x1c,\xa7t\x88\xa5?'
tRp29
ag19
(g21
S'\xdf\xbc\xb3GT\xdb\xa6?'
tRp30
ag19
(g21
S'|\x14\xe1A\x12\xaa\xa7?'
tRp31
asS'current'
p32
(lp33
F-0.010597710894446799
aF-0.016709468723221918
aF0
aF0.0061001740261361877
aF-0.015591186660892082
aF0.010558733184309943
aF-0.013495842696905586
aF-0.012797837599293984
aF0.008269981749218518
aF0.0055420083009973782
asS'future'
p34
(lp35
g19
(g21
S'\x00\x00\x00\x00\x00\x00\x00\x00'
tRp36
ag19
(g21
S'\x8a\xd1\xd5oS)\x80?'
tRp37
ag19
(g21
S'\xea\\1SQ\xbf\x8f?'
tRp38
ag19
(g21
S'n\xc1\x95\xa0\x93E\x92?'
tRp39
ag19
(g21
S'X\x02k\xb6]\x1c\x96?'
tRp40
ag19
(g21
S'\xd0oe\xc0\xef\x92\x9a?'
tRp41
ag19
(g21
S'K\xf0\x0b\xc3\x15\x92\x9e?'
tRp42
ag19
(g21
S'mI\xea\x17:\xa4\x9f?'
tRp43
ag19
(g21
S'\xd7\x9f,g\xa4\xcc\xa4?'
tRp44
ag19
(g21
S'k\xd9/0\x999\xab?'
tRp45
asS'sharpe'
p46
g19
(g21
S'\xf2Q\x1a\xe1Mh\xf2?'
tRp47
sa(dp48
g3
(lp49
g12
ag10
a(lp50
F-0.0079831535201455462
aF-0.010165177476062515
aF0.0021394582385073158
aF0.0019214511124365421
aF-0.0038354971785650406
aF0.00021385051226261269
aF-0.0023523480999594905
aF0.0030010342657686459
aF0.01389183046412607
aF0.00021080988736038719
aa(lp51
F0
aF-0.0046509485361743751
aF0
aF0
aF-0.0093453618694553358
aF0
aF0
aF0
aF0.004716760770984256
aF0
aa(lp52
F-0.009638835343280857
aF-0.0097322043294604445
aF0.0049138935816173688
aF-0.0097798576238579318
aF-0.0074075603819204316
aF0.0049751417370699604
aF0.0049507694131664826
aF0
aF0.0049261241323398392
aF-0.0073530919096062132
aa(lp53
F-0.0039953360827144381
aF-0.0036231721182294718
aF0.013376609271648845
aF0.0043573470906442839
aF-0.0076560593190218799
aF0.0056577353519753426
aF-0.0063930414559268348
aF-0.0036031236408718935
aF0.0041327560678179375
aF0.0042443928821751008
aa(lp54
F-0.005218477183250793
aF-0.011520290679599874
aF0.0083246941260505872
aF0.0025799772702700865
aF-0.015645951601455838
aF0.0012548618112192709
aF-0.0017754343200749186
aF-0.0047081417752143735
aF-0.0071481202451790134
aF0.0044468600850258166
aa(lp55
F-0.015837212427422555
aF0
aF0.0076635747158966998
aF0.0038015905445984775
aF-0.0075762547471285423
aF0.0038179876070720872
aF0
aF0
aF0
aF0
aa(lp56
F-0.0044694833418207902
aF-0.0070271532117566335
aF-0.0058973588053396215
aF-0.00098872057740821782
aF-0.0096991580251666928
aF0.0041975474580305712
aF-0.0065685092464331891
aF0.002805030762732677
aF0.010988985266209967
aF0.0053359791223463087
aa(lp57
F0.0010753031936497257
aF0.00035815398450441245
aF0.0063237814124291808
aF-0.0029641758031720288
aF-0.0057081016537851277
aF0.0057740580822548586
aF-0.0049037923171210201
aF-0.0021634913178525529
aF0.005299975395946086
aF-0.00059900350484730499
aasg15
S'AFL'
p58
sg17
(lp59
g19
(g21
S'\x00\x00\x00\x00\x00\x00\x00\x00'
tRp60
ag19
(g21
S'\xca\x04\x81\xc4\x7f&\x8a?'
tRp61
ag19
(g21
S'\x1a\xabX\\\xb5\xce\x91?'
tRp62
ag19
(g21
S'Y\x1a\x1d\x1c\xd6\x90\x99?'
tRp63
ag19
(g21
S'a\x86*\xdb\x1f\xb2\x9f?'
tRp64
ag19
(g21
S'\x8d\x07\xc0u\xf8\xaa\xa2?'
tRp65
ag19
(g21
S'\x85\xc5\x95\xc4\xc7\xd7\xa2?'
tRp66
ag19
(g21
S'\x15\x9d\x13\xf3At\xa3?'
tRp67
ag19
(g21
S'68\x81\x97\xb1\x06\xa5?'
tRp68
ag19
(g21
S'!a\\\xea}\xcf\xa4?'
tRp69
asg32
(lp70
F-0.01060934482899943
aF-0.0098982818228836953
aF0.0055540268906148823
aF0.00069045845596391172
aF-0.012556961328039767
aF0.0043320990590302129
aF-0.0041742449906396108
aF-0.00097806343439979298
aF0.0055944335664335756
aF0.0023643671108659016
asg34
(lp71
g19
(g21
S'\x00\x00\x00\x00\x00\x00\x00\x00'
tRp72
ag19
(g21
S'\x82C\xb76f\xb9\x82?'
tRp73
ag19
(g21
S'\xad\x9a\x8d\xa4\x84\xdd\x8e?'
tRp74
ag19
(g21
S';\x94\x01\xc0\r7\x8b?'
tRp75
ag19
(g21
S'\xd5\xf4M\x1b\x9f2\x8c?'
tRp76
ag19
(g21
S'\x98\xbe8z\xf5-\x97?'
tRp77
ag19
(g21
S'\xeb&I\x0f;z\x98?'
tRp78
ag19
(g21
S'\x03\xf9\xad\x07\xf9f\x9f?'
tRp79
ag19
(g21
S'\x9e\xda4\x9fo\xe0\xa3?'
tRp80
ag19
(g21
S'cP\x96\xe1a\xa0\xa6?'
tRp81
asg46
g19
(g21
S'\x88/\xb7hme\xf1?'
tRp82
sa(dp83
g3
(lp84
(lp85
F-0.015759827066315006
aF0.0033232932521628554
aF-0.01595901884851016
aF0.011321878824969399
aF-0.013313101764390455
aF-0.015639465941751966
aF-0.0099687545151872208
aF-0.030522403067262251
aF-0.0016228173197928269
aF-0.011053315994798434
aa(lp86
F0.006725701037976181
aF0.013364292374613526
aF-0.013188043505358788
aF0.015590219882686362
aF-0.02631533719190007
aF-0.0090086177364418138
aF-0.018181958800215756
aF-0.011573807189624504
aF0.0046829103837640598
aF-0.0023299405412058856
aa(lp87
F0.00057345470059573913
aF-0.0010031103127449931
aF-0.013773291398473457
aF0.0096013518066508444
aF-0.0096542500249098863
aF-0.010621388040157108
aF0
aF-0.018235060968830697
aF-0.0016478652908489587
aF0.0082520934565989898
aa(lp88
F0.016114511681569275
aF0.0008811414481318193
aF-0.018485936250482102
aF0.016143494155169535
aF-0.022065367610037006
aF0.0072202067840356722
aF-0.0053763175292849651
aF-0.023423410560380369
aF0.0018450357493554881
aF-0.0018416378616633528
aa(lp89
F-0.00070810926580522576
aF0.0010628432609594706
aF-0.0041584920224841003
aF0.011194973039053322
aF-0.01871538516792148
aF0.0027757685924017258
aF-0.01142957741817718
aF-0.010839105326439214
aF-0.0027395075165079475
aF-0.00045778110535426794
aa(lp90
F0
aF-0.0040815355794281156
aF-0.002049052665445215
aF0.010266720254816435
aF-0.014227642170613928
aF-0.02061843583853732
aF-0.01684224171180795
aF-0.0064237478707207165
aF-0.0021553690614813164
aF-0.004319606875170464
aa(lp91
F0.0052917510786931595
aF0
aF-0.010526826943454417
aF0.013297712429452909
aF-0.018372325002565967
aF-0.0053473646858278358
aF-0.0026884669890812137
aF-0.013476924698527315
aF-0.010929494510044204
aF-0.0055244590232999382
aa(lp92
F0
aF-0.016024579864135951
aF-0.016287502350192176
aF-0.0033122297829625749
aF-0.0066424895190021691
aF-0.010034372187359831
aF-0.013513424533753838
aF-0.020548321492586247
aF0
aF-0.0034975299219136666
aa(lp93
F0
aF0.0069930465149767723
aF0
aF0
aF-0.027777933677609081
aF-0.014285545764471313
aF-0.014492834808469905
aF-0.036764656487878959
aF0.0076336307853741864
aF0
aa(lp94
F-0.0014182373027937811
aF-0.00110461144274289
aF-0.0088467282169196488
aF-0.0078100315173422986
aF-0.017831328042704899
aF-0.010304239498379605
aF-0.0061146853624094661
aF-0.016794110263500174
aF0.00033825048419226751
aF0.0027049737461545538
aasg15
S'CNP'
p95
sg17
(lp96
g19
(g21
S'\x00\x00\x00\x00\x00\x00\x00\x00'
tRp97
ag19
(g21
S'\xa1\xf6\xb9\xc6D\x7f\x91?'
tRp98
ag19
(g21
S'V\tP\x83\xce\x82\x9c?'
tRp99
ag19
(g21
S'H\xcb\xbc\xf14\x02\xa1?'
tRp100
ag19
(g21
S'\xb2\xd0f\x9c\xb3A\xa4?'
tRp101
ag19
(g21
S'\xf1\x90\x87N\x15\xc5\xa1?'
tRp102
ag19
(g21
S'\xa4F\x12\xd5\xf6u\xa1?'
tRp103
ag19
(g21
S'f9\xc2.Lx\xa3?'
tRp104
ag19
(g21
S'7\xec\xf7\xf5a\xa8\xa3?'
tRp105
ag19
(g21
S'\xc7e \x1bk\xd9\xa6?'
tRp106
asg32
(lp107
F0.0033181251216040306
aF0.0028937162921160199
aF-0.01566368507831822
aF0.010050335429243398
aF-0.022388100232665836
aF-0.014843087362171242
aF-0.014205768402927329
aF-0.023580742358078523
aF-0.00044727189412912096
aF-0.0022371812080537691
asg34
(lp108
g19
(g21
S'\x00\x00\x00\x00\x00\x00\x00\x00'
tRp109
ag19
(g21
S'O\xaf\xc0\xa8\xc7!u?'
tRp110
ag19
(g21
S'\x05Z+\xf6\xd5\xe2\x8f?'
tRp111
ag19
(g21
S'2\xd8\x13T\x01\xac\x8e?'
tRp112
ag19
(g21
S'\x00\x17\x1b.\xe7\x95\x9e?'
tRp113
ag19
(g21
S'\xe6\x92b\x1a2\xf6\x9f?'
tRp114
ag19
(g21
S'\xe5\xf3\xa8\x98\xd3\x85\x9e?'
tRp115
ag19
(g21
S'\nQ`1\xe7\\\x97?'
tRp116
ag19
(g21
S'\x14\xada\xd6-0\xa0?'
tRp117
ag19
(g21
S':\x07\x13"]\x8b\xa4?'
tRp118
asg46
g19
(g21
S'AV[\xc3\xa3\xc5\xec?'
tRp119
sa(dp120
g3
(lp121
(lp122
F-0.024953173546102988
aF-0.030029574822101317
aF0.010523148265920055
aF0.00075453146271164105
aF-0.013120114908227662
aF0.014975479167101633
aF-0.015507357976900938
aF0.0014589418720725087
aF0.0019935132954073966
aF0.023416086526849463
aa(lp123
F-0.011211699621343978
aF-0.013377519661013155
aF-0.00023106895289274419
aF-0.000688993579878369
aF-0.014032605334595211
aF0.04409706489624661
aF-0.0067033610661543543
aF0.010798483293611563
aF0.010460821387740704
aF0.012334289563520302
aa(lp124
F-0.028457613237486346
aF-0.019917978067607072
aF0.0023909682505316144
aF0.0080500904726049857
aF-0.0097604904339333078
aF0.0062724026363521063
aF0.0032650538535561307
aF0.016272171508699088
aF0.0075692259026277388
aF0.020514263755429155
aa(lp125
F-0.026026565066959748
aF-0.012766970160192929
aF0.017744109816903629
aF-0.012411159519109231
aF0.0068821786394135031
aF0.041307318195109487
aF0.0057077712294904305
aF0.015039809940255619
aF0.019010488546755737
aF0.02359372565214668
aa(lp126
F-0.014828446627773459
aF-0.0075258699888549694
aF0.015165774702842265
aF0.00093378201348734435
aF-0.0083954973689953014
aF0.02916267051414206
aF-0.011882974238552078
aF0.014801110450483037
aF0.0054694134054856583
aF0
aa(lp127
F-0.0097628457329341934
aF-0.012957718309859249
aF0.01541098700311121
aF-0.0050590216380538627
aF-0.00028257060550441614
aF0.037581295212808577
aF-0.011437962651471706
aF0.00055099175071604274
aF0.025605726872246687
aF0.016107328859060386
aa(lp128
F-0.032502969364541133
aF-0.022606005599211266
aF0.0077096512893407715
aF0.0011157105935658111
aF0.0014329024214440368
aF0.016375172522263375
aF-0.013608620369095312
aF0.0069774661738440597
aF0.013543325412652496
aF0.0021752542867966933
aa(lp129
F-0.03300670299468126
aF-0.028961536301689551
aF0.021516718929958357
aF0.0060479710354232295
aF-0.0026949000744669618
aF0.012263631468442801
aF-0.0043119743679955694
aF-0.004949327602447492
aF0.0072535864345869483
aF0.019753266811753559
aa(lp130
F-0.0182841072829527
aF-0.0042979398706375445
aF0.020143818557507284
aF0.0028208852912744412
aF-0.0098452564393493574
aF0.038352277715649863
aF-0.021950612052959947
aF0.0014204819541250113
aF-0.0014184670472818265
aF0.012784130106436817
aa(lp131
F-0.013443055611358289
aF-0.01627194059107441
aF0.0014793072658426287
aF0.0049683721218303865
aF0.00040093543627834645
aF0.019633950414049077
aF-0.0082525177580415505
aF0.0025096109134157166
aF0.010935458397012987
aF0.018376065418500245
aasg15
S'SWKS'
p132
sg17
(lp133
g19
(g21
S'\x00\x00\x00\x00\x00\x00\x00\x00'
tRp134
ag19
(g21
S'\xad\xfa\xe8tT\xfb\x90?'
tRp135
ag19
(g21
S"n\xc4/-\x93'\x91?"
tRp136
ag19
(g21
S'\x97\xb8\xe1\x0f\xfa\xc1\x9a?'
tRp137
ag19
(g21
S'\x90\nG\x87(8\x9a?'
tRp138
ag19
(g21
S'\xa7_\x91\xc3\xb5\xa4\x9b?'
tRp139
ag19
(g21
S'\xaa\xec\xd8\xdd\x90%\xa2?'
tRp140
ag19
(g21
S'\x9cJ\x9a@\r\xa1\xa1?'
tRp141
ag19
(g21
S'\x96\x86\x85\xb68/\xa1?'
tRp142
ag19
(g21
S'\x1a\xf0\xf3\x83\xa4+\xa2?'
tRp143
asg32
(lp144
F-0.027698373791979838
aF-0.026079939524405897
aF0.015105712716286922
aF0.0047348350848169232
aF-0.013598963791529485
aF0.039311997288779807
aF-0.010638258610957033
aF0.016726323729554741
aF0.015145633380108816
aF0.020450109324758832
asg34
(lp145
g19
(g21
S'\x00\x00\x00\x00\x00\x00\x00\x00'
tRp146
ag19
(g21
S'1-\x0c\xb0\xac\x08\x82?'
tRp147
ag19
(g21
S'\xfd\x8b\x97\x93^\xad\x86?'
tRp148
ag19
(g21
S'\x04Y!*Oo\x95?'
tRp149
ag19
(g21
S'jdc\x95>\xf1\x9a?'
tRp150
ag19
(g21
S'\xb5C\xbak\x899\x97?'
tRp151
ag19
(g21
S'V\xdc:\x81@\x9c\x9e?'
tRp152
ag19
(g21
S'\xa4\xc1\xdf\xdb\x95\xb9\xa2?'
tRp153
ag19
(g21
S'\xf1\xa2t\x17\xd0\x80\xa1?'
tRp154
ag19
(g21
S'\xc6\x0e\x8b\x9a\xd3\xa0\xa2?'
tRp155
asg46
g19
(g21
S'>\x94\xfd\xab/g\xf0?'
tRp156
sa(dp157
g3
(lp158
(lp159
F-0.010197999761005336
aF0.0030302858580337328
aF0.010271882135852816
aF0.015596944545500577
aF-0.0088599808089910199
aF0.024433819915502586
aF-0.0063991018374230197
aF0.013466062682670393
aF0.016175650449629497
aF-0.005685066728159602
aa(lp160
F-0.019053659832923151
aF0
aF0.011959268755258328
aF0.010152275862721232
aF-0.015939061014610609
aF0.01021302091559402
aF-0.0037911940555921948
aF0.001585702280981973
aF0.027942677995814548
aF-0.001771101521562766
aa(lp161
F-0.012788596802841862
aF-0.0046779775214833581
aF-0.0021691973969630773
aF0.0097826449275361244
aF-0.012199497230014447
aF0.015256083717541519
aF-0.01395355942921072
aF0.015965203772322297
aF0.029642857142857082
aF-0.0055497745404091779
aa(lp162
F-0.0071323494671692257
aF-0.0071834790894894545
aF0.00024946708406596671
aF-0.0034921227022737659
aF-0.012515660877631701
aF0.026108983213485551
aF-0.0032115027565470977
aF0.018339588366048334
aF0.015818949679221327
aF-0.00023962282904428016
aa(lp163
F-0.015549093596303219
aF-0.0098717246368068418
aF0.020438719055292105
aF0.010258953246738017
aF0.0096711161146974776
aF0.036398465066062015
aF-0.0041589803047478299
aF0.0027842901120506201
aF0.024525620657060522
aF-0.0045165991580252409
aag126
a(lp164
F-0.017045507356528208
aF-0.0057802749838506366
aF0
aF0
aF0.0058138808136770229
aF0.017341095120983183
aF-0.0028402097214044199
aF0.01139612748450541
aF0.019717389352346387
aF-0.011049586796066477
aa(lp165
F-0.015521064301552107
aF-0.018018018018018018
aF0.0068807339449541288
aF0.011389521640091117
aF-0.013513513513513514
aF0.027397260273972601
aF-0.0044444444444444444
aF-0.004464285714285714
aF0
aF-0.0044843049327354259
aa(lp166
F-0.0096379030027932376
aF-0.0049973405237948324
aF0.018239477242856614
aF0.015316701046817059
aF-0.028381485961837087
aF0.029473647354356983
aF-0.013803595253889278
aF0.0075167530633042353
aF0.017751568053586981
aF-0.0048029032883084586
aa(lp167
F0.0014154164215017427
aF-0.0072085203873251853
aF-0.012955515319931695
aF0.01514489275676279
aF-0.0041205018866226177
aF0.028962854703806707
aF-0.0031891802379749746
aF0.0086243252574346018
aF0.028134062355390586
aF-0.0038900187932474277
aasg15
S'SCHW'
p168
sg17
(lp169
g19
(g21
S'\x00\x00\x00\x00\x00\x00\x00\x00'
tRp170
ag19
(g21
S'\x15\xa5$\xb5[\x8a\x84?'
tRp171
ag19
(g21
S'\xeeZ!\x07\x17/\x88?'
tRp172
ag19
(g21
S'\x8b\x90]\xd0\xe0E\x8f?'
tRp173
ag19
(g21
S'(\xf4\xe9-\xd3\xae\x97?'
tRp174
ag19
(g21
S'\xe3xP\xccn\x97\x93?'
tRp175
ag19
(g21
S'\x80\xd2\xe1\xa0\n\x1f\x9a?'
tRp176
ag19
(g21
S'3\x01M\xfd\xed\x98\x97?'
tRp177
ag19
(g21
S'7\x06\xb8L\xe8f\x9a?'
tRp178
ag19
(g21
S'\xf6\xd9\xad\x8c\xb9P\x9e?'
tRp179
asg32
(lp180
F-0.018245838668373777
aF-0.0068471144440822264
aF0.0088641171655980885
aF0.010738659290595537
aF-0.011912363551589377
aF0.028673801607240142
aF-0.002850807728856505
aF0.011753494282083894
aF0.023861883830455115
aF-0.005519809705004217
asg34
(lp181
g19
(g21
S'\x00\x00\x00\x00\x00\x00\x00\x00'
tRp182
ag19
(g21
S'\xc2{\xd1\xfc\x1d\xb9Q\xbf'
tRp183
ag19
(g21
S'f\x89]\xea\xba\xe3b?'
tRp184
ag19
(g21
S'0\xbe\x1e\x80\xc2\x1e\x80?'
tRp185
ag19
(g21
S'pg"\xbc\xed\xc2\x88?'
tRp186
ag19
(g21
S'\xe4\x14(\xe6\x084\x91?'
tRp187
ag19
(g21
S'\x1b\xf0\x89F\xa6?\x90?'
tRp188
ag19
(g21
S'~\xdf\x8e\x8c\xc2v\x97?'
tRp189
ag19
(g21
S'\xb2\xd3[\xf5\xde\x9f\x9d?'
tRp190
ag19
(g21
S'\x86U\xe8\xe4B/\xa1?'
tRp191
asg46
g19
(g21
S'[\xf5a"\xbc#\xf2?'
tRp192
sa(dp193
g3
(lp194
(lp195
F-0.0020880171763867882
aF-0.0062754682094210892
aF-0.0042111994775119801
aF0.0063452210152354031
aF-0.0076018975042218802
aF0.0063808755019531529
aF-0.0042297777030048146
aF-0.01061509527986648
aF-0.0021423470602236964
aF0.012898965593539053
aa(lp196
F0.0019595829487039115
aF-0.0084249075067319591
aF-0.00075861058330604892
aF0.0024294509585842321
aF-0.0036352985621036136
aF0.0022803284072694073
aF0.00091011159080559858
aF-0.010456165926503188
aF-0.0022970903491582816
aF0.01028397878458121
aa(lp197
F-0.00041572127531847817
aF0.0024958247491402214
aF0.0018672137963181466
aF0.0028991438991166582
aF-0.0064010112748477789
aF-0.0010390680532486405
aF-0.010401488386774562
aF-0.017447924451160834
aF-0.007274294273338716
aF0.003663753318285958
aa(lp198
F0
aF0
aF0
aF0
aF0
aF0
aF-0.0068027459059304607
aF-0.013698680454237635
aF0
aF0.0069444703067752739
aa(lp199
F0.0038583162990182733
aF-0.0056604644726569687
aF-0.00073790150253959957
aF0.0052748181115240371
aF-0.014901913717807363
aF0.0049004121782115885
aF-0.0054418108569845971
aF-0.0099129787921273926
aF-0.0015072633100229101
aF0.00028758267278545407
aa(lp200
F0
aF-0.006956496093117678
aF0.0035026139669355255
aF0.0017452233715216257
aF-0.019163778973546347
aF-0.0017762219990515328
aF0
aF-0.017793588175813824
aF0.0036231750397341914
aF0.014891589287831946
aa(lp201
F-0.004831040707874542
aF-0.0097080032310875933
aF0.0098031724610140279
aF0
aF-0.0097080032310875933
aF0.0049010900683215588
aF-0.0048771865378196997
aF-0.019608329570770092
aF-0.0050001265214201325
aF-0.0050252534243439397
aa(lp202
F-0.00060603840249705938
aF-0.0022235887141914866
aF0.0043557571121027048
aF-0.0057488619566703611
aF-0.0098397352362540515
aF0.004097955568493899
aF-0.013059877967413733
aF-0.014680090285220843
aF0.0060854163058653528
aF0.0070914707187633465
aa(lp203
F-0.0002124066086433131
aF-0.0091372683495995095
aF0.0051468500080942628
aF-0.00021331297451628633
aF-0.0081092866091919628
aF0.013339044833377027
aF-0.0080678958551150502
aF-0.011986323509712895
aF-0.0082322612894061287
aF0.0024028142440625667
aa(lp204
F-0.0041321833679983039
aF0.0082986583138578325
aF0.0041152992898892213
aF0
aF-0.012295058833080949
aF0.0041493291569289163
aF-0.0041321833679983039
aF-0.020746888975897295
aF0
aF0.0042372386773318988
aasg15
S'CLX'
p205
sg17
(lp206
g19
(g21
S'\x00\x00\x00\x00\x00\x00\x00\x00'
tRp207
ag19
(g21
S'!\xbe\x8bo2\xfby?'
tRp208
ag19
(g21
S'y@\xb4<\x96y\x94?'
tRp209
ag19
(g21
S" p\xe7nC'\x98?"
tRp210
ag19
(g21
S'\xac\x02\x10\xa3\xb6\x89\x9a?'
tRp211
ag19
(g21
S'\x8c\x96\xcag\xd6=\xa1?'
tRp212
ag19
(g21
S'\xb5\x91/\r\x07\xfb\xa1?'
tRp213
ag19
(g21
S'ni\xc0/Z\xac\xa0?'
tRp214
ag19
(g21
S'\xb5\x85P\x9c\x1c~\x9b?'
tRp215
ag19
(g21
S'\x95\x0e\x15!ca\x9c?'
tRp216
asg32
(lp217
F-0.00031603855573982399
aF-0.0066387181430389228
aF0.0011933646082684635
aF0.0014303957860901735
aF-0.010791882497822968
aF0.00417131384016325
aF-0.0068701070458540786
aF-0.018178909266409266
aF-0.0040963461264352961
aF0.0096249178944540891
asg34
(lp218
g19
(g21
S'\x00\x00\x00\x00\x00\x00\x00\x00'
tRp219
ag19
(g21
S'DS\x1ei`\xa9p\xbf'
tRp220
ag19
(g21
S'\x02JG\xb5+\x93V?'
tRp221
ag19
(g21
S'\xd2\xe5A\xa0sS\x8f?'
tRp222
ag19
(g21
S';\xbb\x9b\xc5\xdd\xc6\x8e?'
tRp223
ag19
(g21
S'NEJ(\xc1\xf2\x97?'
tRp224
ag19
(g21
S'\xa6\xc6\xc1\x08\xb3\xbb\xa0?'
tRp225
ag19
(g21
S'\x08m\xe2\xfc\x90W\x9f?'
tRp226
ag19
(g21
S'\xbd\xaa\xfc\x02\xca\xa6\xa0?'
tRp227
ag19
(g21
S'\xd8\xe0p\xc0\xf3\xdf\xa0?'
tRp228
asg46
g19
(g21
S'<\x0f\xbe\xfc\xe8\x06\xf3?'
tRp229
sa(dp230
g3
(lp231
(lp232
F0.0007983782843775716
aF-0.0071773385878166453
aF-0.0080315022770083011
aF0.00080939340971529798
aF-0.016181203500336788
aF-0.0049342482269828609
aF-0.0074382752042615914
aF-0.015819878998891507
aF-0.025380728315987769
aF0.011284456061756109
aa(lp233
F-0.0058584376589350569
aF-0.0031101325912588438
aF-0.013136354248395612
aF0.001164725496330304
aF-0.020940635563923452
aF-0.001527754201323991
aF0.0010200782046922772
aF-0.01137910986108843
aF-0.027143068667635661
aF0.0067101711688121466
aa(lp234
F0.0039524900144271152
aF-0.0026246195603474667
aF-0.010526368421052649
aF0.0026596543967901528
aF-0.016710901413503943
aF0.0045859724844887146
aF0.003490789286209035
aF-0.00053521542775531253
aF-0.023828622427235366
aF0.014262232974827933
aa(lp235
F0.0033632664091890496
aF-0.0023463613509467382
aF-0.0089596058750609862
aF-0.00090398540046048785
aF-0.014138667591160574
aF0.0027535232722387349
aF-0.0058352587265419172
aF-0.0085164925618521625
aF-0.010563008827833884
aF0.011262308220191312
aa(lp236
F-0.0018163091216812552
aF-0.016190266682572195
aF-0.02459354576012026
aF-0.0047391692687939972
aF-0.040571339833682267
aF-0.00039724688503571618
aF-0.010129172536066365
aF-0.0096308785624757021
aF-0.01782794630865565
aF0.015883022495644231
aa(lp237
F-0.005647549660747834
aF-0.014203471437330209
aF0
aF0.0086456648478513889
aF-0.020000630406474183
aF0.0058296554573112587
aF-0.002897933773219708
aF-0.01453378538864487
aF-0.02359884105842407
aF0.021144540290342954
aa(lp238
F0
aF0
aF-0.0068027244339650614
aF0
aF-0.013698636920017505
aF0.0069444479308230648
aF-0.0068965551625943785
aF-0.013888895861646241
aF-0.021126771319214692
aF0.021582745038075019
aa(lp239
F-0.010356025889967686
aF-0.0053629302300691063
aF0.00092056810993457476
aF-0.0053869924400605472
aF-0.017437253002797255
aF0.0013445281531806645
aF-0.0071160845683639435
aF-0.0098714811306888882
aF-0.020759409713747481
aF0.016736472108918002
aa(lp240
F0.011790309429456957
aF-0.0084745495937435904
aF-0.010683197623886665
aF0.0021592842729073461
aF-0.02155180761105006
aF-0.017621090451076439
aF-0.015694462225399313
aF-0.005695746563453374
aF-0.02176295813618756
aF0.0067328602286518945
aa(lp241
F0.0022566893543561881
aF-0.011260580840203946
aF-0.0068344740493835364
aF-0.0091742756336004958
aF-0.020832597523810184
aF0
aF-0.0047295998173275001
aF-0.0023746194621101784
aF-0.014285736849669991
aF0.0024162105793456017
aasg15
S'SLG'
p242
sg17
(lp243
g19
(g21
S'\x00\x00\x00\x00\x00\x00\x00\x00'
tRp244
ag19
(g21
S'\xef\x86\xa6\xe1\x06\xdb\x91?'
tRp245
ag19
(g21
S'\x0bh[\x0b\x87\n\x9c?'
tRp246
ag19
(g21
S'\x84\x88\xa4\xfc\x0e\xe2\x9e?'
tRp247
ag19
(g21
S'\x8apMp\x8d<\xa0?'
tRp248
ag19
(g21
S';\x9ap\xb8\x82\x00\xa1?'
tRp249
ag19
(g21
S'\xfaU\xf6w2\x11\xa3?'
tRp250
ag19
(g21
S'\xad\x1d{\xd5q\xd8\x9f?'
tRp251
ag19
(g21
S'\x01d\xb4\x10\xd6\xe2\xa0?'
tRp252
ag19
(g21
S'}8\xcb\xbd\x055\xa2?'
tRp253
asg32
(lp254
F0.0013195093639061547
aF-0.01352895597568279
aF-0.01335826981250382
aF0.0029071953154467573
aF-0.022465757971426401
aF0.0017606708642138374
aF-0.0098982333006148223
aF-0.0092497244627648724
aF-0.023198783259159063
aF0.013612627657605247
asg34
(lp255
g19
(g21
S'\x00\x00\x00\x00\x00\x00\x00\x00'
tRp256
ag19
(g21
S'R\x8d~e2\xf4\x88?'
tRp257
ag19
(g21
S'\xdb\xde\xd9\x1e&\xaa\x8c?'
tRp258
ag19
(g21
S'\xe6\xf93F\xb5\xf0\x94?'
tRp259
ag19
(g21
S'\xb6\xdb\xe6\x9eJ\xfd\x9b?'
tRp260
ag19
(g21
S'WI\xaf)\x7f\x0c\xa2?'
tRp261
ag19
(g21
S'\x0e\xe2\x85\xd6r5\xa4?'
tRp262
ag19
(g21
S'\xb6\xf5u\xef\xd5.\x9f?'
tRp263
ag19
(g21
S'\xee\xd4e\x94W\xc3\xa1?'
tRp264
ag19
(g21
S'\nE;\xbe\x8er\xa0?'
tRp265
asg46
g19
(g21
S'\x87\xa1R\x99H\xe8\xec?'
tRp266
sa(dp267
g3
(lp268
g200
a(lp269
F0.0030261012666509585
aF-0.0027848430549997777
aF-0.0018618031515265029
aF0.0034973408663981388
aF-0.0025557765977679693
aF-0.0041928695794373272
aF0.0025731140605482826
aF-0.017265569556418912
aF-0.0021367509239549787
aF0.0085653303511489774
aa(lp270
F-0.011381236402386585
aF-0.0048404359023762871
aF-0.0010516820270966077
aF0.004342698955221793
aF-0.0056341733721584153
aF-0.0048755163260703971
aF0.0054290810001260941
aF-0.014795245786260578
aF-0.0075087858917112279
aF0.0039178805055084878
aa(lp271
F-0.0077007887960881018
aF-0.0037693858427215021
aF-0.0022256334178526152
aF0.0037920481020351764
aF-0.010888899671621129
aF-0.011458092069303007
aF0.012045428671957313
aF-0.01167752454739056
aF0.0070439102284431277
aF0.011732855164182106
aa(lp272
F-0.0070499990944982932
aF0.0084923256251544944
aF-0.0022088077485064241
aF-0.0034587708772393301
aF-0.015132428852722972
aF0
aF0.0050745913373109663
aF-0.0019634453557336989
aF0.0035131914372313363
aF0.0089624107384811066
aa(lp273
F-0.0079270187249298706
aF-0.0053267750408713095
aF-0.0080331492247397544
aF0.010552128670500753
aF-0.010684762870413877
aF0.0056455497970059106
aF0.0080546047896934547
aF-0.010653717982864951
aF-0.0017131573585155559
aF0.012993356724631859
aa(lp274
F-0.0084174865265455746
aF0
aF0.0016978438260728524
aF-0.0025424029612352785
aF-0.012744323819917953
aF0.00086065787103592614
aF0.0060188631892612735
aF-0.019658105671255734
aF0.019180477491257477
aF0.0042771487412184362
aa(lp275
F0
aF0.0098232330829031104
aF-0.0046692406719865999
aF0.0062547435625878557
aF-0.011849231330969306
aF0
aF0.0066836507961017307
aF-0.010935390234217898
aF0.003553968640265468
aF0.010820293700698133
aa(lp276
F-0.0085658599993382323
aF-0.0044593024897910333
aF0.0013997488331318763
aF0.0036343673308226951
aF-0.0033427139333795188
aF0.0092230928023990574
aF0.0074771676187049543
aF-0.0085212111872157211
aF0.0049903064648423095
aF0.0082758782725580547
aa(lp277
F-0.00076897981785001139
aF-0.0041776250013905777
aF-0.0033120181713958857
aF-0.014953462021864993
aF-0.019453548862579644
aF0.00068813136980456103
aF0.006761373470817433
aF-0.0093340904805867767
aF-0.00011493427611830387
aF0.0091933259244173296
aasg15
S'TSN'
p278
sg17
(lp279
g19
(g21
S'\x00\x00\x00\x00\x00\x00\x00\x00'
tRp280
ag19
(g21
S'\xff\xfb\x08\x84\x81T\x83?'
tRp281
ag19
(g21
S'\xf7l\xd7\x8a\xd0.\x90?'
tRp282
ag19
(g21
S'jd\xb5\xd7\xc5\xde\x99?'
tRp283
ag19
(g21
S'\x112fh\x0b\xe1\x97?'
tRp284
ag19
(g21
S'5\x1ao\x9aaI\xa0?'
tRp285
ag19
(g21
S'\x11#\x98\xe4\xb4\x93\xa2?'
tRp286
ag19
(g21
S'0\xe6\xb4\xcf2\xb6\x9d?'
tRp287
ag19
(g21
S'\xa6\xd9\xbaG\x8e\xa6\x97?'
tRp288
ag19
(g21
S'\xf5\x926t]\xa0\x9c?'
tRp289
asg32
(lp290
F-0.006513809105945568
aF-0.0049830184898237619
aF-0.0021085398830472633
aF0.00396191225618192
aF-0.015653710167865573
aF-0.0021382332717295198
aF0.0057586716421231532
aF-0.019041278802697074
aF0.0013573911051279902
aF0.0082689443514549609
asg34
(lp291
g19
(g21
S'\x00\x00\x00\x00\x00\x00\x00\x00'
tRp292
ag19
(g21
S'\xba\xa3\x9a\xad\xc5P,\xbf'
tRp293
ag19
(g21
S'\x12\x9cI}Sow?'
tRp294
ag19
(g21
S'\xda\xb6@_\x92\x1d\x85?'
tRp295
ag19
(g21
S'\x17\xf6\x07\x85\x11p\x93?'
tRp296
ag19
(g21
S'\x95N\xd5\xc7\xe4|\x97?'
tRp297
ag19
(g21
S'K\xd8\x8a\xc0\xbf\xd3\x98?'
tRp298
ag19
(g21
S'\x80h\xd7O\xd0\xcf\x9a?'
tRp299
ag19
(g21
S'CC\x84\xf7XP\x9d?'
tRp300
ag19
(g21
S'\x0b\x93\xb5\x8a\x19\x0e\xa0?'
tRp301
asg46
g19
(g21
S'\xa1\xa2[\xc2w\xf2\xf1?'
tRp302
sa(dp303
g3
(lp304
(lp305
F-0.010433104051828575
aF-0.002451845132664371
aF0.0073737075060317696
aF0.009271712291820465
aF-0.0060437577025592784
aF0.020398206390264774
aF0.0013167391016410523
aF-0.0065750507861395673
aF0.0033694191769249103
aF-0.0016790456933413317
aa(lp306
F-0.0093006178933172402
aF-0.0015020028156344913
aF0.0030086553323298904
aF0.014998108891732269
aF0.00812712493409278
aF0.013558003055400126
aF0.0014461971946768879
aF-0.009025292152355216
aF0.0061930948290121928
aF-0.0032585194286370031
aa(lp307
F0.0046534886518626245
aF0.00042111396581041415
aF-0.0040407740354250115
aF0.016144056312349244
aF-0.0020795170707884007
aF0.015503877399503639
aF-0.0023803755582319855
aF-0.0089682730997441441
aF0.020008331068136983
aF0.0056161691165804153
aa(lp308
F0
aF0.0031478338479177764
aF0.0049921340130672795
aF0.011212043246757845
aF0.0012631008464224127
aF0.012195159182799373
aF-0.0015233343108742156
aF-0.0055478719488750057
aF0.0089260677063737852
aF-0.0062205838885099991
aa(lp309
F-0.002278675167898717
aF-0.0045661292609155725
aF0.0068814301476142195
aF0.0022772816248340672
aF0
aF0.022727098930174543
aF0.0022229759782193253
aF0
aF0.019954947296837802
aF-0.0043477489898105385
aa(lp310
F-0.008484829484408575
aF0
aF0.0094742803303519453
aF0.0045413673377087682
aF-0.0018083703809148961
aF-0.0051955742134563478
aF-0.0015360570459545038
aF-0.005846119179468947
aF0.016403540110142709
aF-0.0051766602822891352
aa(lp311
F-0.0079767532636509375
aF0
aF0.0080408934870161621
aF0.013294010495728129
aF0.0026280286532165578
aF0.023557817913572435
aF-0.0025608130539740382
aF-0.012816867486000588
aF0.0077919965572218197
aF-0.012882888941192251
aa(lp312
F-0.0051531677399317549
aF-0.0017266571625619666
aF0.00086485891548576893
aF0.0074884483154048437
aF0.00057175577235382214
aF0
aF-0.002571412367750645
aF0.00085929805898651531
aF0.021172482109645188
aF-0.0019746072580543923
aa(lp313
F-0.0036421454253841791
aF-0.00035664139038667491
aF-0.0099893148016567228
aF0.015585610810966592
aF-0.0011532401683492291
aF0.012699829684556237
aF-0.0072788044441071433
aF-0.0083922032667287996
aF0.01879733935909229
aF0.0066456914484125749
aa(lp314
F0
aF-0.00075187969924823776
aF0.0067720090293454955
aF0.013826569506726455
aF0.0033173609774183868
aF0.01469515116440662
aF0.0068790004750543922
aF-0.0089895724196178504
aF0.010522533037827764
aF0.0082585278276480021
aasg15
S'UNP'
p315
sg17
(lp316
g19
(g21
S'\x00\x00\x00\x00\x00\x00\x00\x00'
tRp317
ag19
(g21
S'\x8f\x88~VDO\x89?'
tRp318
ag19
(g21
S'_\x17\x19\x8d\xaa[\x83?'
tRp319
ag19
(g21
S'\xacd\xd4\xd3\x9c\xab\x88?'
tRp320
ag19
(g21
S'\xe0Z\x9aE\x8c0\x92?'
tRp321
ag19
(g21
S'\xab\xacR$\xdd\xd9\x98?'
tRp322
ag19
(g21
S'\xc4G~\xaf/\xdb\x9c?'
tRp323
ag19
(g21
S'\xb2\x8ee\xda\xba\xb4\x9f?'
tRp324
ag19
(g21
S'%=TR\xf4\x88\xa1?'
tRp325
ag19
(g21
S'\xa6&\x1f\x96\xf3\xd8\xa1?'
tRp326
asg32
(lp327
F-0.0078880940705070672
aF-0.0015901833649911981
aF0.0071140157145890047
aF0.013811344518952983
aF-0.0020799187986723089
aF0.01636098391372438
aF-0.0018455962457254232
aF-0.0069851054336949507
aF0.019344191979811531
aF-0.0019281814295902468
asg34
(lp328
g19
(g21
S'\x00\x00\x00\x00\x00\x00\x00\x00'
tRp329
ag19
(g21
S'\x8a\xf9\x11\x070\xd1q?'
tRp330
ag19
(g21
S'\xf5\x0e\xb9F^\x03i?'
tRp331
ag19
(g21
S'\x10\xa7\xf6\xd2\x82\xd6c?'
tRp332
ag19
(g21
S'\x1a\n\xce\x8c,GV?'
tRp333
ag19
(g21
S'\x7fKK\xea\xd9\x17\x84?'
tRp334
ag19
(g21
S'\xf5;\x94+`>\x94?'
tRp335
ag19
(g21
S'bcKW\xe4\x95\x92?'
tRp336
ag19
(g21
S'J\x19\xf7\x15*\xae\x9f?'
tRp337
ag19
(g21
S'S\x87?b\x86s\x9e?'
tRp338
asg46
g19
(g21
S'@\nl\xc0\x93L\xeb?'
tRp339
sa(dp340
g3
(lp341
(lp342
F0
aF-0.0023581233839198279
aF0.0023636972737335264
aF-0.009434185766309713
aF-0.0095231831297268484
aF0.0048060794792566322
aF0.0047856663456768726
aF-0.026190675497684307
aF0.01222654947985187
aF-0.0024176797380240974
aa(lp343
F0.0091400866351661753
aF-0.0040254581792837823
aF0.0074098772245388541
aF-0.0030090208064832151
aF-0.0080483011695242218
aF0.0043948427530700433
aF0.010434251381889926
aF-0.018654270607772694
aF0.00033946168243642735
aF0.0020359931219487482
aa(lp344
F-0.0017902650185921125
aF-0.0017934758156062643
aF0.0074435609927482327
aF-0.0038217175048302588
aF-0.020460338977763462
aF0.0028720858911246492
aF0.011976018967934439
aF-0.013892388438910254
aF0.00026086289900052219
aF-0.005216494634057523
aa(lp345
F0
aF0.0054347589826441479
aF0.0054053820340799223
aF0
aF-0.00537632096532451
aF0
aF0.0054053820340799223
aF-0.021505283861297929
aF-0.0054944813463482225
aF-0.0055248374627289076
aa(lp346
F-0.0016642287979399674
aF-0.004815743274559553
aF0.0050251489812637856
aF-0.0029629555342582168
aF-0.013558690324426581
aF0.00094143419594165819
aF0.0033859998328563214
aF-0.00093737478035355319
aF0.0011258625347493963
aF-0.0052483089872887223
aag201
a(lp347
F0.0046015300509666323
aF-0.0078521098342040057
aF0.013849964485601482
aF0.00048785777807679545
aF-0.0022756767891835921
aF0.0039100434184148056
aF0.0089256519260710165
aF-0.016728273969434153
aF0.0075249212299425298
aF-0.006656909086288465
aa(lp348
F-0.0027626747201779855
aF-0.0027703282359620731
aF0.0027780242750514361
aF-0.0027703282359620731
aF-0.016666543418029849
aF0.0028252344157445519
aF0.0056334250469379631
aF-0.008403360300131819
aF0.0084745752090036406
aF-0.0056018673471151005
aa(lp349
F0.0048543710615262499
aF-0.0048309199833584853
aF0.0048543710615262499
aF0
aF0
aF0
aF0
aF-0.024154599916792582
aF0.0099009945283270624
aF-0.0049019629557604848
aa(lp350
F0.012679753941572537
aF-0.0041176327676800918
aF0.0073411150664865034
aF-0.0053610322001679291
aF-0.010442961377683118
aF0.0021276564698714823
aF0.00076430534421665849
aF-0.022063803792378919
aF0.017007971087298079
aF-0.0043514923097322054
aasg15
S'FLIR'
p351
sg17
(lp352
g19
(g21
S'\x00\x00\x00\x00\x00\x00\x00\x00'
tRp353
ag19
(g21
S'\xc4\x8f\x1d\xb4\xf4\xc6\x89?'
tRp354
ag19
(g21
S'\x1eS\xf4\x92\x93y\x97?'
tRp355
ag19
(g21
S'\xfe\xf2\xdf\x0c\xbe\x1e\x97?'
tRp356
ag19
(g21
S'\xc15\xa01K\xa2\x95?'
tRp357
ag19
(g21
S'M\x98\xea\xd8\x89g\x97?'
tRp358
ag19
(g21
S'\x1d\xab8\x8a\xea\xb1\x96?'
tRp359
ag19
(g21
S'\x86\xb8\xf4\xa9\xadw\x96?'
tRp360
ag19
(g21
S'.\xe8\x90\\\xfa\xe2\x9b?'
tRp361
ag19
(g21
S'\xe531\xab\xd2\xec\xa0?'
tRp362
asg32
(lp363
F0.0012694065376070492
aF-0.0038034549541507106
aF0.011135889277760066
aF-0.0025173064028537412
aF-0.012302901820097705
aF0.0035132866021490598
aF0.0054105665181412525
aF-0.025324438113326991
aF0.0016238713340736715
aF-0.00486378080415049
asg34
(lp364
g19
(g21
S'\x00\x00\x00\x00\x00\x00\x00\x00'
tRp365
ag19
(g21
S'"\x9d\x12\n\x1dGZ\xbf'
tRp366
ag19
(g21
S'\xd0\xab\x04W\xb3\xb4q?'
tRp367
ag19
(g21
S"\xc0\xdf\x8b\xbd'g\x84?"
tRp368
ag19
(g21
S'\xca\xe2QX\xb3\x16\x8a?'
tRp369
ag19
(g21
S'H\x13\xdd\xb1\xb4\\\x96?'
tRp370
ag19
(g21
S'\xce\xab\x90\x00\x08\xee\x92?'
tRp371
ag19
(g21
S'\xf2.&DZ\xee\x95?'
tRp372
ag19
(g21
S"\x00G\x8b\xe3\x8d'\x98?"
tRp373
ag19
(g21
S'\xe8\x9e.\xd6\xbeS\x9e?'
tRp374
asg46
g19
(g21
S'\xd9\xca/De\xab\xec?'
tRp375
sa(dp376
g3
(lp377
g54
a(lp378
F-0.0030488023371307081
aF-0.0091743778761025057
aF-0.0015431647127202917
aF-0.0046367518825871645
aF-0.017080811209697719
aF0.003159580547867513
aF-0.0015747570068885923
aF-0.003154596764574811
aF-0.0047468013129605517
aF0
aa(lp379
F-0.0051888140146501482
aF-0.019994159859928001
aF0.003843932774145574
aF0.01030920029156007
aF-0.00903783141364441
aF0.00029415664503104584
aF-0.0058823784061424302
aF-0.0056212526541191635
aF-0.017554300875571593
aF0.0063597591153104231
aa(lp380
F-0.010714458148030806
aF-0.010830501098775992
aF0.0018255327896936884
aF-0.001822206292357404
aF-0.0073007606386623321
aF-0.012865807105393694
aF-0.0055873813293351796
aF-0.0037467880153415774
aF-0.009397962857082387
aF0.0075888429045388043
aa(lp381
F0.0021114442121740345
aF-0.011799347066990092
aF0.0063965668914043898
aF-0.001906779620619148
aF-0.0074294840282426201
aF0.0049188197142351004
aF-0.0085124916572677217
aF0.00021459540673955684
aF-0.0051501504356288265
aF0.0062554140151982254
aag241
a(lp382
F-0.0089285622784044047
aF0
aF0.0090089996932315487
aF0
aF-0.0089285622784044047
aF0
aF-0.0045044998466156208
aF0
aF-0.0090497643553822758
aF0.0091324105185719654
aa(lp383
F0.0013614939901244192
aF-0.013936114323314937
aF0.005860073803374337
aF0.0017134564875067114
aF-0.0078686137735231552
aF-0.0010345006911877141
aF0.0082844237117786629
aF-0.0068469381204230451
aF-0.0086177153559546648
aF0.0077138904766928112
aa(lp384
F-0.0012484145130690187
aF-0.014999962499999953
aF0.0036801140730920467
aF-0.0020229612857736454
aF-0.014189813759027158
aF0.0060403677172695801
aF-0.0024272228209916602
aF-0.0052503012037546076
aF-0.0023171987641607467
aF-0.010064503225806499
aa(lp385
F0.0017660579160324531
aF-0.0057294494974526496
aF0.00066493150558147741
aF0.00066443291755637686
aF-0.0035413837948529404
aF-0.0011106048808507637
aF-0.0026685121266560741
aF-0.00044585157093048229
aF-0.0020075842006298545
aF0.0073759117308445209
aasg15
S'RAI'
p386
sg17
(lp387
g19
(g21
S'\x00\x00\x00\x00\x00\x00\x00\x00'
tRp388
ag19
(g21
S'\xfc\xcb1"\xbf\x9a\x8b?'
tRp389
ag19
(g21
S'/\xae\xc0\t0=\x99?'
tRp390
ag19
(g21
S'\xee\x17le\xa6\x99\x9b?'
tRp391
ag19
(g21
S'\xce\xe4\xe0e\xdd#\x9e?'
tRp392
ag19
(g21
S'\xe7B\x0cL\xd0\xe8\xa0?'
tRp393
ag19
(g21
S'\xd2_\x1c\x87R\xf5\xa0?'
tRp394
ag19
(g21
S'x9\xeb\xf2\x9b\xd7\xa1?'
tRp395
ag19
(g21
S'\x9d\x94\xa7<\xe6\x9c\xa1?'
tRp396
ag19
(g21
S'\x12/#\x97\x14H\xa1?'
tRp397
asg32
(lp398
F-0.0040999795838453429
aF-0.015850164024283089
aF0.0016732482394217758
aF-0.00062639383224890406
aF-0.015252820408424081
aF0.00042437936718907777
aF-0.0046660019229691849
aF-0.0027701044108246332
aF-0.010683760912046173
aF0.0066955077040065864
asg34
(lp399
g19
(g21
S'\x00\x00\x00\x00\x00\x00\x00\x00'
tRp400
ag19
(g21
S'[K\x13\xe7\xb6\xb9M?'
tRp401
ag19
(g21
S'r\x01\xc5E\x8d\xab{?'
tRp402
ag19
(g21
S'ch\x17\xd5\xf5\x83\x8f?'
tRp403
ag19
(g21
S'6&\xaf\xe8\x1e\x99\x95?'
tRp404
ag19
(g21
S'M\xdd\x0f\x8a\xa1\xa8\x9c?'
tRp405
ag19
(g21
S'\xf3\xd7[\x91\xac\xb7\xa0?'
tRp406
ag19
(g21
S'\x97\xcd\xcd\xebw\xde\xa1?'
tRp407
ag19
(g21
S"\x17\xd9:Gz'\xa1?"
tRp408
ag19
(g21
S'\xba\x9d8\xcb0\x1e\x9e?'
tRp409
asg46
g19
(g21
S'\xfdd\xd3Pk\xe2\xeb?'
tRp410
sa(dp411
g3
(lp412
g55
a(lp413
F-0.011527350283765029
aF-0.0034455570580304027
aF0.009363278606606365
aF0.0058309250358520607
aF-0.012516528322448952
aF-0.0013342035233049902
aF0.0094856235422902287
aF-0.0046320501476079506
aF0.00079773700186697117
aF0.0010628604166153109
aag54
a(lp414
F-0.012759774092699013
aF-0.0073855552704404368
aF-0.0066963679300494298
aF0.0026217273459795175
aF-0.010833064863524124
aF-0.0120845826713463
aF-0.0019112686278141713
aF-0.0026809697024720819
aF-0.0015361134076806043
aF0.0011538356372640945
aa(lp415
F-0.0054945054945055817
aF0
aF0
aF0.0055248618784531269
aF-0.0054945054945055817
aF0
aF-0.0055248618784529907
aF0
aF0
aF0
aag10
a(lp416
F-0.013980903446992606
aF-0.014365613483351823
aF0.0098428297374261765
aF0.010309348436883022
aF-0.0072356904541061974
aF-0.0039244908666631016
aF-0.0030018760807597636
aF0.0043281864858850296
aF-0.0061832030110708673
aF-0.0024509955847445632
aa(lp417
F-0.010721964523017142
aF-0.0072253844545946948
aF0.0007277970590157481
aF0.0043827851354826444
aF-0.0050908738228979409
aF-0.0036550538965817066
aF0
aF-0.009537773174995004
aF-0.0037036919361707137
aF0.00074353070784729841
aa(lp418
F-0.0025217181019620591
aF-0.0021066593955020294
aF0.0023926608118394065
aF0.0012636316092468599
aF-0.015986518869984361
aF-0.0042752709787277961
aF-0.0094461666995652293
aF0.0033232663445463997
aF0.00086401537847743341
aF-0.000143908973580075
aa(lp419
F-0.0076923092269870954
aF-0.0058139714118705093
aF0
aF0.00584797135011753
aF-0.0077519395430612316
aF-0.011718786145458559
aF-0.0039525359440272497
aF0.0039682204781007679
aF0.003952604286800377
aF0.0019684873205918626
aasg15
S'CME'
p420
sg17
(lp421
g19
(g21
S'\x00\x00\x00\x00\x00\x00\x00\x00'
tRp422
ag19
(g21
S'\x00\x8b\xce\xb5-G\x8c?'
tRp423
ag19
(g21
S'\xa6O+\xf4q_\x90?'
tRp424
ag19
(g21
S'\xaf\xe9`\x08\xad\x0f\x91?'
tRp425
ag19
(g21
S'\xf4\xe1\xab\\\xfe\x88\x97?'
tRp426
ag19
(g21
S'\x1f\xc7\xfe#\x8f5\xa0?'
tRp427
ag19
(g21
S'\xa0\xbc\x96\xc1\xdc;\x9f?'
tRp428
ag19
(g21
S'\xd3\xa4\xc5b+\xae\xa0?'
tRp429
ag19
(g21
S'\xce5\x06\x04\x9c\x89\xa0?'
tRp430
ag19
(g21
S')q\xd6p\x93w\xa0?'
tRp431
asg32
(lp432
F-0.017801144028798142
aF-0.011456484392083436
aF0.0041797474355394224
aF0.0057705137240612117
aF-0.015048899548532703
aF-0.0019098930298901806
aF-0.0043053675173757456
aF-0.0013452483905062589
aF0.0012508226691040727
aF0.0012493177253377786
asg34
(lp433
g19
(g21
S'\x00\x00\x00\x00\x00\x00\x00\x00'
tRp434
ag19
(g21
S'\xf6\x81A\xd5\x16;\x81?'
tRp435
ag19
(g21
S'\xcdw\xb8W\xc7Y\x8f?'
tRp436
ag19
(g21
S'\r\xd7\xfb\x04\xd4\x11\x8d?'
tRp437
ag19
(g21
S'\x0cn\x12\x8f\x82\xac\x91?'
tRp438
ag19
(g21
S'a\xe3`\xbe\xd8\xd8\x96?'
tRp439
ag19
(g21
S'\xfe\xefn\xb4\x82\x12\x9a?'
tRp440
ag19
(g21
S'\x00\xe8<\xecg\xfc\x9b?'
tRp441
ag19
(g21
S'N\xf8[\xc1\xb3S\x9e?'
tRp442
ag19
(g21
S'\xde\xe68\xce\x93\xf2\x9d?'
tRp443
asg46
g19
(g21
S'\xe01n\xe3\x1c\x19\xed?'
tRp444
sa(dp445
g3
(lp446
g10
a(lp447
F-0.011150385415033116
aF-0.0045379801427707298
aF0.0042823248948782415
aF0.006189889478048949
aF-0.0061518104512657077
aF0.0049518693685735261
aF-0.0058855808030987434
aF0.0035798196209569089
aF0.016600345888549473
aF0.014170076815919018
aa(lp448
F-0.0065762283365631705
aF-0.0074472681823055222
aF-0.00083369299030368988
aF0.0091781838918815004
aF-0.003100494713721866
aF0.010781694712420468
aF-0.0038974206933338707
aF-0.0012356142339567053
aF0.0088659921917440716
aF0.0091968192499114407
aa(lp449
F-0.013794514114981655
aF0.003765858330815673
aF0.0077178767578979504
aF0.0095734700230035909
aF0.00073753199173884159
aF0.0068434870984590149
aF-0.012025454048630714
aF-0.00095262669079646336
aF0.010912160070655451
aF0.0029343817181777007
aa(lp450
F0
aF-0.0055556962232226953
aF0.005586734422554228
aF0.0055553757146139492
aF-0.0027631388543411834
aF0.0055419095120824019
aF-0.0082653008031673362
aF0.0027768865857852524
aF0.0083111063523086306
aF0.002746371454980938
aa(lp451
F-0.0081967178120036666
aF-0.0057850945726586464
aF0.0089774978586991093
aF0.012687431748156262
aF-0.01285389231626005
aF0.0070875287542344128
aF-0.0080196100188950521
aF0.0084144225145138443
aF0.010798424909905756
aF0.0092262918791650075
aa(lp452
F-0.01647215097282162
aF-0.0089136980583711806
aF0
aF0.013082476118503134
aF-0.0016144127724215525
aF0.0040422106234026369
aF-0.012882217530916489
aF-0.0059816426132610562
aF0.013402713868940229
aF0.0024330393421347091
aa(lp453
F-0.013110580042297525
aF-0.011282967186556869
aF0.0060739222825142878
aF0.010428097023121361
aF-0.0086909007631308308
aF0.001461222078572338
aF-0.0051067952997794373
aF0.012282399864235511
aF0.0132198339784731
aF0.0092940209248668724
aa(lp454
F-0.0081872886600750545
aF0.0065169672436409982
aF0.004316591374232963
aF0.0083093750262784732
aF-0.0039783937556344172
aF0.0041369575838400971
aF0
aF0.00071038311913130072
aF0.011641102543761113
aF0.0061745049288324822
aag55
asg15
S'APH'
p455
sg17
(lp456
g19
(g21
S'\x00\x00\x00\x00\x00\x00\x00\x00'
tRp457
ag19
(g21
S"L'\xa3.\xb0\x8b\x90?"
tRp458
ag19
(g21
S'}\xa0Cs8\xca\x96?'
tRp459
ag19
(g21
S'\xdc>t\xa7\x1aM\x9a?'
tRp460
ag19
(g21
S'\xa5\xca>+\x1f\xba\x9b?'
tRp461
ag19
(g21
S'\xf1|\x18Ik\x8d\xa0?'
tRp462
ag19
(g21
S'?\x07\xb8\x9a\x08\x98\x9f?'
tRp463
ag19
(g21
S'Kc\xb1\xb3m\xd8\x9c?'
tRp464
ag19
(g21
S'\x1c\xfdW\x8d\xdcR\x9e?'
tRp465
ag19
(g21
S'\x12\tUU\xaf\xaf\x9d?'
tRp466
asg32
(lp467
F-0.019183952496954933
aF-0.0058987428096474483
aF0.007182994890958797
aF0.0074419069767441299
aF-0.0046168511257223179
aF0.0037105442176870733
aF-0.008009796919587182
aF-0.0015527794548825765
aF0.0093312437326013315
aF0.0095530813697047804
asg34
(lp468
g19
(g21
S'\x00\x00\x00\x00\x00\x00\x00\x00'
tRp469
ag19
(g21
S'kq\xda\x85G\xeds?'
tRp470
ag19
(g21
S'\xed]\x82\\\x00A|?'
tRp471
ag19
(g21
S'j\xfb\xb9o\x04Oq?'
tRp472
ag19
(g21
S"\x807[\x91N'|?"
tRp473
ag19
(g21
S'\x05_\xa2"#\xc0\x92?'
tRp474
ag19
(g21
S'~\xf12d\x0c\x17\x99?'
tRp475
ag19
(g21
S'\x85\xf2\\s\xdd\xc8\x9e?'
tRp476
ag19
(g21
S'\xfaZ+,\xbc@\xa1?'
tRp477
ag19
(g21
S'+\xd9_\xa5jR\x9d?'
tRp478
asg46
g19
(g21
S',X\x95`v\x9b\xef?'
tRp479
sa(dp480
g3
(lp481
(lp482
F-0.017219849179090484
aF-0.0041414145951389801
aF0.0083173384516953934
aF0.001269003807106652
aF-0.0015842522681955623
aF0.0053951126626467201
aF0
aF-0.0022095643939393705
aF-0.0060107875352486935
aF-0.00031826861871424452
aag55
a(lp483
F-0.01286481610695785
aF0.0025912358572653333
aF0.010946424178028746
aF0.0048875454855211806
aF-0.0087548545433425856
aF0.014493838451942425
aF-0.001264960469938386
aF0.0049173269721838287
aF-0.00066734565324796621
aF0.0015580269896286556
aa(lp484
F-0.018433266723981784
aF-0.0093904562663946547
aF0.014219209262312663
aF0
aF-0.009346571978691565
aF0.0094347545915830881
aF0.0046720588253340231
aF0.0046515536570308283
aF0
aF0
aa(lp485
F-0.020407524162194737
aF0.0078124876359648024
aF0.012919248221014219
aF0.0051023461304367064
aF-0.0076142038024591694
aF0.0076726247308597237
aF0
aF0.010152117493650496
aF0
aF0
aa(lp486
F-0.013919091917079971
aF0.0028672630023581121
aF0.012975687805299323
aF-0.0067303587271876084
aF-0.0076501689903657414
aF0.0066079275038832142
aF0.00010999402599255749
aF-0.011863098588258026
aF-0.0086704176025554133
aF0.0024667337111099652
aa(lp487
F-0.020256768989051595
aF-0.008444971125390062
aF0.01174749422652753
aF-0.0084180502188684579
aF-0.0040983401830266093
aF0.0017636983167594197
aF-0.0011737287743758609
aF-0.0032315019276153573
aF-0.00088414297236132859
aF0.0017698507458218649
aa(lp488
F-0.0079522910111756769
aF0
aF0.010020010826268855
aF0.0059524196030961403
aF0
aF0.0078895510056313806
aF-0.0058708793558498
aF-0.0049212109574613442
aF-0.0029674129647272443
aF0
aa(lp489
F-0.012345632988624766
aF0
aF0.018749929227745654
aF-0.006134946594780465
aF-0.0061728164943123135
aF0.012422313651228591
aF0
aF0
aF0
aF0.006134946594780465
aa(lp490
F-0.019984595300442751
aF-0.005882310035924542
aF0.0092044308753624297
aF0.0022149565838935361
aF0.0018200650407501516
aF0.009473178227836344
aF0.0023139376566585165
aF0.010132103498451938
aF-0.010665362502592181
aF-0.0064168289414928484
aasg15
S'XYL'
p491
sg17
(lp492
g19
(g21
S'\x00\x00\x00\x00\x00\x00\x00\x00'
tRp493
ag19
(g21
S'\x13\xa1b\xb6\x0e\xb9\x8f?'
tRp494
ag19
(g21
S'o\x90\x1e\x904\xef\x95?'
tRp495
ag19
(g21
S'\x924\xc0\xf8\x81\x1c\x92?'
tRp496
ag19
(g21
S'\x18=\xaf\x14\xa7\xb4\x95?'
tRp497
ag19
(g21
S'`\xdd)h\xf8\xca\x9b?'
tRp498
ag19
(g21
S',F\xa8\xd2Ze\xa0?'
tRp499
ag19
(g21
S'\xcc\xff\xab|\xea\xe1\x9e?'
tRp500
ag19
(g21
S'\x00\xb5\xd6\xe3\x02\xe8\xa1?'
tRp501
ag19
(g21
S'\x9a\xd6\x00\xbd^\x07\x9f?'
tRp502
asg32
(lp503
F-0.020334473970628549
aF-0.0011638603523542793
aF0.011846882429719123
aF0.002111343651107319
aF-0.0074698143549093553
aF0.012157487456580471
aF0.00038131553133818104
aF-0.0040023441204051127
aF-0.005931821887938127
aF-0.0023098940845063692
asg34
(lp504
g19
(g21
S'\x00\x00\x00\x00\x00\x00\x00\x00'
tRp505
ag19
(g21
S'}\xe44\x03\x1c\xf2p?'
tRp506
ag19
(g21
S'6"NA\x9b\xa8\x89?'
tRp507
ag19
(g21
S'v\xf8\xc8\xde\xf8r\x87?'
tRp508
ag19
(g21
S'\xe6:\x08tX\xf6\x91?'
tRp509
ag19
(g21
S'\xf9\xaf*\xbd\x9d\x14\x96?'
tRp510
ag19
(g21
S'\xcePd\xc5\x00\xb1\x95?'
tRp511
ag19
(g21
S'\x8b\x9ccjs\x92\x99?'
tRp512
ag19
(g21
S'u7\x97\xc6\xde\xbe\x9c?'
tRp513
ag19
(g21
S'\xa0z\xe3`\x00\x92\x9b?'
tRp514
asg46
g19
(g21
S'\xf2\x06\xf8I\xebn\xec?'
tRp515
sa(dp516
g3
(lp517
(lp518
F-0.015151774939164652
aF-0.015384213620603509
aF0.0078126328259791409
aF0
aF-0.0077520687591223743
aF0.015624585582944935
aF-0.0076917720069585695
aF-0.0077520687591223743
aF0
aF0.0078126328259791409
aa(lp519
F-0.0073537748003090868
aF-0.0098765464144987877
aF0.0049889747067109131
aF0.0024807998870987409
aF-0.0099009849462041027
aF0.019999989487245663
aF0
aF-0.017157691316670848
aF0.007482151241698801
aF-0.0049506225814483782
aa(lp520
F-0.022055493983832428
aF-0.0013949778996338183
aF0.0095459781404966006
aF0.0011531277816624083
aF-0.017968196150706901
aF0.010321353794405741
aF-0.01068027371353761
aF-0.01196907578604548
aF0.014014261705202742
aF-0.0067930931896494576
aa(lp521
F-0.019608609161565812
aF-0.013333245531298586
aF0
aF0
aF-0.006756626095307681
aF0.0068025886432503098
aF-0.006756626095307681
aF0
aF0.010204572148670025
aF-0.0067338723569439407
aag305
ag10
a(lp522
F-0.0098705843124260069
aF-0.0093215991571868172
aF0
aF0.0037898689285769511
aF0.0018226634509585407
aF0.01962315853148551
aF-0.011980648517855
aF-0.0014189005177010442
aF0.013047332180779865
aF0.0029329709626640826
aa(lp523
F-0.020835280448863527
aF-0.01418544948712439
aF0.014389572034359128
aF-0.0070927247435621952
aF0
aF0.021430628148213008
aF0
aF-0.0069935154201684786
aF0
aF0
aa(lp524
F-0.024866955779266894
aF-0.0094095592687968316
aF0.010462596509672274
aF0.00013626702625975495
aF-0.0035417788561896832
aF0.011346561548966133
aF-0.0094620704462527912
aF0.0095524564622332039
aF0.0018924032755175825
aF-0.00026990015097540687
aa(lp525
F-0.012049608448625451
aF-0.012195847160659898
aF-0.0041157188008178573
aF0.0041327279469276935
aF0.0041157188008178573
aF0.016394665208258136
aF-0.0080654675410251168
aF-0.0040647989139262408
aF0.016327740264922452
aF-0.0040165361495418167
aasg15
S'AMAT'
p526
sg17
(lp527
g19
(g21
S'\x00\x00\x00\x00\x00\x00\x00\x00'
tRp528
ag19
(g21
S'\xc3h\xc1\xe0\xefU\x8c?'
tRp529
ag19
(g21
S'\x80\xdbc\x07pe\x92?'
tRp530
ag19
(g21
S'\xce\xbbL\x07\xa6G\x94?'
tRp531
ag19
(g21
S']\x1d[\x0bf\xe0\x97?'
tRp532
ag19
(g21
S']\xa3\xf2\x00"y\x9c?'
tRp533
ag19
(g21
S'H\xd1\xf1c\x94;\x9b?'
tRp534
ag19
(g21
S'\xb0\x1c\xaa\x91\xed\x15\x9c?'
tRp535
ag19
(g21
S'\x90V\x0b\xef\xba{\xa0?'
tRp536
ag19
(g21
S'\xe1\xe91B\xb6\xf8\x9f?'
tRp537
asg32
(lp538
F-0.020798975873259299
aF-0.010451786918408588
aF0.0098807155025553012
aF0.0033738530153121426
aF-0.0053799596503026278
aF0.019269776876267759
aF-0.0076285240464343904
aF-0.010360929144385068
aF0.011144883108919796
aF-0.0016700734245132195
asg34
(lp539
g19
(g21
S'\x00\x00\x00\x00\x00\x00\x00\x00'
tRp540
ag19
(g21
S'+\xf0hi\xcerv?'
tRp541
ag19
(g21
S'\xae9\x06\xff9\x94z?'
tRp542
ag19
(g21
S'\xf5\xae\xb6~\xdc\x08\x84?'
tRp543
ag19
(g21
S'\xedh#\xa7F\x9c\x8d?'
tRp544
ag19
(g21
S'-%\xd8\x10\x0e\xfc\x9a?'
tRp545
ag19
(g21
S'\xfbW\xd1\x91\xa6\xf3\x95?'
tRp546
ag19
(g21
S'\x15\x95\xce\x16=%\x99?'
tRp547
ag19
(g21
S'\x93\xd5\xb8\xdah6\x9c?'
tRp548
ag19
(g21
S'\xed& &\xedg\x9b?'
tRp549
asg46
g19
(g21
S'@\xbc\xe2u,n\xeb?'
tRp550
sa(dp551
g3
(lp552
(lp553
F-0.022479753714231474
aF-0.0061641011750786876
aF-0.0071564709492793737
aF0.028592086137351543
aF0.00023353273843182659
aF0.016347525683640503
aF-0.011718792673119531
aF-0.0023250025721472637
aF0.015381015960905971
aF-0.0039017176008677911
aa(lp554
F-0.022798828922689068
aF-0.0029785310146666116
aF-0.0017424219076263526
aF0.02294266160085489
aF0.0017066080206528202
aF0.0019468600308151498
aF-0.006558249245829522
aF-0.00097803595258659959
aF0.026921251059832403
aF0.0066731372710814099
aa(lp555
F-0.010813080100009033
aF0.0034742510976557861
aF-0.00016886618572431485
aF0.0050675546619977918
aF0.0037814931638515455
aF0.013813315564265391
aF-0.014450859715719846
aF0.0044407034523166579
aF0.019519560577886234
aF0.0063000850449323239
aag452
a(lp556
F-0.0065909965399207253
aF0.00073721050061566348
aF0.003683262270328393
aF0.012660516186951203
aF0.0016307266459323711
aF0.011034753153223116
aF-0.020397194235855728
aF-0.0089498096007663581
aF0.011057914106569972
aF-0.003281090344438142
aa(lp557
F-0.012042919262443785
aF-0.020390011586852729
aF-0.0099548126080838614
aF0.030850151248153435
aF0.0066503825372441622
aF0.012111849615702766
aF-0.015448193834116154
aF-0.0077347672619564271
aF0.018930909122706223
aF0
aa(lp558
F-0.019845919114298879
aF0.0019057689108188524
aF0.0059438620250941683
aF0.023634897167982418
aF0.0027708843068247856
aF0.0089798031891708992
aF-0.0034230070629828681
aF-0.0075567448047831314
aF0.0046149326998656615
aF0.01056487910585225
aa(lp559
F-0.020173457621597359
aF0.0025013809842402627
aF0.0095969287132431115
aF0.025855529276756314
aF-0.0088954723236368063
aF0.0031788184399373031
aF-0.010624421815871369
aF-0.0020723599521939523
aF0.0041532442364854948
aF0.0039481819071468622
aag449
a(lp560
F-0.0068468437115030058
aF-0.0036284611731079086
aF0.0043700270588082927
aF0.0021754635943173452
aF0.0014472179100473153
aF0.0083091994329297144
aF-0.01540664400974591
aF-0.0014555580602539202
aF0.021137004044461918
aF-0.0074947052456136318
aasg15
S'FLR'
p561
sg17
(lp562
g19
(g21
S'\x00\x00\x00\x00\x00\x00\x00\x00'
tRp563
ag19
(g21
S'w\xe6\\[|m\x86?'
tRp564
ag19
(g21
S'4|\x9cC)\x95\x96?'
tRp565
ag19
(g21
S'\xaa\xe4\xa0\xbb\xe2C\x9a?'
tRp566
ag19
(g21
S'\xf2\xab\x08M\x02\x05\x99?'
tRp567
ag19
(g21
S'\x89\xfd\xfa\xa2\ru\x9f?'
tRp568
ag19
(g21
S'\xae3\xb9\xe5\x05\x88\x9d?'
tRp569
ag19
(g21
S'\xc6\xe7R\xc0\xfd|\xa1?'
tRp570
ag19
(g21
S'T\xb99_\x1aA\xa2?'
tRp571
ag19
(g21
S'\xfb0\x87\xfb\x9f\x14\x9e?'
tRp572
asg32
(lp573
F-0.020318744615164461
aF-0.00081335908906052506
aF0.0022385226340765067
aF0.026395918781725883
aF0.00276953516853681
aF0.012428506853985142
aF-0.016367887763055405
aF-0.0025753169572107272
aF0.01946383394096661
aF0.00038955774831255635
asg34
(lp574
g19
(g21
S'\x00\x00\x00\x00\x00\x00\x00\x00'
tRp575
ag19
(g21
S'H\xe4\xb5\xe4\xff?Y?'
tRp576
ag19
(g21
S';\x1d\xf3?-\x16\x86?'
tRp577
ag19
(g21
S'm8.3>\xbf\x91?'
tRp578
ag19
(g21
S'\xbafwN\xfe\xf6\x98?'
tRp579
ag19
(g21
S'\x0b\xa9y\xef]\x02\x9e?'
tRp580
ag19
(g21
S'\x07\xaeR3\x8b\xf1\x98?'
tRp581
ag19
(g21
S'fCG]\xe7\x0b\x9c?'
tRp582
ag19
(g21
S'zo\x86{\x87\x15\xa0?'
tRp583
ag19
(g21
S'\xe5[\xaf\xb6\x87\x88\x9a?'
tRp584
asg46
g19
(g21
S'N\x98\xee\xba\xf59\xec?'
tRp585
sa(dp586
g3
(lp587
(lp588
F0
aF-0.0044642953597255021
aF0.0044843146648754547
aF0
aF-0.0089285907194510041
aF-0.0045045143245190369
aF0.0045248967869126553
aF-0.0045045143245190369
aF0.0045248967869126553
aF0.0045045143245190369
aa(lp589
F0
aF-0.0053705870064636773
aF0.0025917965335209479
aF0.0038776447341011427
aF-0.0092274913029719782
aF0.009313430905654738
aF0.0094420936743458694
aF-0.0034013461135995256
aF0.0038395959668058978
aF-0.0067998300659723766
aa(lp590
F0.0028328611898016999
aF-0.0056497175141242938
aF-0.002840909090909091
aF0
aF-0.0085470085470085479
aF0.011494252873563218
aF0
aF0
aF0.005681818181818182
aF0.0084745762711864406
aa(lp591
F0.0028436337593622245
aF-0.0075614772573183945
aF0.0095238942092124666
aF0.0023583963089148516
aF-0.015058773968415276
aF-0.0014333985660953763
aF0.0038277719325617529
aF0.0023832598858524608
aF0.0076081533014695467
aF0.0089664514836684181
aag53
a(lp592
F0
aF-0.01149461444046929
aF0.011628277001205119
aF0.0057470104624909408
aF-0.01142834212323088
aF0.005780229501914173
aF0.011494020924982013
aF-0.011363409656609797
aF0.0057470104624909408
aF0
aa(lp593
F-0.0063532169889970631
aF-0.0063939024472958817
aF0.010296037364969935
aF0
aF0
aF0.0089172286286079046
aF0.0075757296505942762
aF0.0050125101389968691
aF0.0049875782869913494
aF0.007444138485511907
aa(lp594
F-0.0077756695953514181
aF-0.0043678866528525147
aF0.017677456108501629
aF0.0011410730230131828
aF-0.0049391993583738454
aF0.005345526130744847
aF0.0035447356103316219
aF-0.0032798610273531963
aF0.010125238594109518
aF0.0063902117811181942
aa(lp595
F0
aF-0.0032362133442831618
aF0.012986971958878157
aF0.0016026370713138501
aF-0.0016000727354312492
aF0.012820561942332652
aF0.0094936628122570706
aF-0.0094043807920591929
aF0.011075925284835759
aF0.0015649294311236794
aa(lp596
F0
aF-0.01312907815836048
aF0.011086490374050195
aF0.0021929416532622563
aF-0.0021881431829331006
aF0.0021929416532622563
aF0.0021881979481235695
aF-0.0043667857394616844
aF0
aF0
aasg15
S'STJ'
p597
sg17
(lp598
g19
(g21
S'\x00\x00\x00\x00\x00\x00\x00\x00'
tRp599
ag19
(g21
S'\xe6\x9f}\x91\x0b\xd5\x88?'
tRp600
ag19
(g21
S'\x9e\x04D\x0f*;\x8e?'
tRp601
ag19
(g21
S'\xbd\xf9\xbamL\xcf\x97?'
tRp602
ag19
(g21
S'\xae\xc2\x0b1\xaa\xc0\x9b?'
tRp603
ag19
(g21
S'&WH\xd8"\xbb\x96?'
tRp604
ag19
(g21
S'\xef0~\xeb\x81\xc5\x9a?'
tRp605
ag19
(g21
S'\xa8E\xaf\x04\xb1\xa2\x94?'
tRp606
ag19
(g21
S'F\x9a\x0f\xeeO\xf2\x8b?'
tRp607
ag19
(g21
S'\x9f\xfft1\xa0\x0b\x82?'
tRp608
asg32
(lp609
F0.00037682927327520826
aF-0.0072827981206400041
aF0.010751397766912569
aF0.0016331657675941978
aF-0.009657644186969367
aF0.010131750381607829
aF0.0050150700848778894
aF-0.0041167912117370583
aF0.0060127268943322822
aF0.0053542524057839831
asg34
(lp610
g19
(g21
S'\x00\x00\x00\x00\x00\x00\x00\x00'
tRp611
ag19
(g21
S'\xa5:l\x9a\x8a\xe9k\xbf'
tRp612
ag19
(g21
S'z\x97[C7\xe1y?'
tRp613
ag19
(g21
S'.2\x12\xe0/\xe2\x83?'
tRp614
ag19
(g21
S"z\x12'\x8eP\xdc\x83?"
tRp615
ag19
(g21
S'\x00\x9b\x80\r\xf74\x8b?'
tRp616
ag19
(g21
S'\xd3m\xb9m\xe2\xbe\x8d?'
tRp617
ag19
(g21
S'\xd5\xbd\xa4H\xf2i\x87?'
tRp618
ag19
(g21
S'"\x80K(\x1c\x0b\x90?'
tRp619
ag19
(g21
S'\x9a\x01"\x16\xee\xc6\x89?'
tRp620
asg46
g19
(g21
S'\x1fi\x9b3\xf4\xda\xf6?'
tRp621
sa(dp622
g3
(lp623
(lp624
F0.0011762016872595062
aF0.0036027490601502352
aF0.0065553067469589343
aF0.0027911304943753733
aF0.00030933200276268553
aF0.0019322923971134486
aF0.0042427522856300498
aF0.0018436396751073452
aF0
aF0.0030670833164712316
aa(lp625
F-0.0031645564869927042
aF0.0023809522802665105
aF0.0058590851569325503
aF0.0012594261934686087
aF0.0018128649864120139
aF0.0042486422204086501
aF0.0048573732482559548
aF0.0015593329788139785
aF-0.0035808630938135712
aF-0.0015624993322728223
aa(lp626
F0.0007989878090532322
aF-0.0019959938291842648
aF0.0059999812102676841
aF0.0011928818938129089
aF-0.0065528558631890565
aF0.0033979967094789889
aF0.0049800798232061414
aF0.0079286093598573484
aF-0.00039326398557212823
aF0.0019673280696586135
aa(lp627
F-0.0038809949975249828
aF-0.0012987263452256944
aF0.0026008304574861038
aF0.00259402053543279
aF0.0012936230079714317
aF0
aF-0.0012919517095148153
aF0.0025873090027481514
aF0.012903223374544725
aF0.0012739099228647184
aa(lp628
F-0.0043726784955368239
aF-0.0051802599106983947
aF0.001811233137173485
aF0.00011301455260607833
aF-0.0021466811718929375
aF0.0037364396911179309
aF0.0023688594477378768
aF-0.0014629507821752119
aF0.0041699043777884762
aF-0.0066217375795464993
aa(lp629
F-0.0018083080579003263
aF-0.0036231679195442728
aF-0.0018181715004249148
aF0
aF-0.0018215424892151682
aF0.0036496737944974478
aF-0.0036364021129993789
aF-0.003649614466607414
aF0.0036629829421439986
aF-0.001824807233303707
aa(lp630
F0.0031900429281961282
aF0.00094210364019904505
aF0.0014119581953345888
aF-0.00070493545977289289
aF-0.00058793301690217585
aF0.00011766543565866246
aF-0.00011765159213281822
aF0.00058827888548209717
aF0.0034096639942174252
aF-0.0021091068871734145
aa(lp631
F0.0028762780919051509
aF-0.0030592741694622037
aF0.0067127507068928723
aF-0.00057158967191773288
aF0.00076250906977576608
aF-0.00019044727847425738
aF0.00038096711109817619
aF-0.0072366838793871228
aF0.0011509339890672416
aF0.0019161113076267772
aa(lp632
F0.00012786590952587533
aF-0.0034539594078025447
aF-0.0037227341791339586
aF-0.0028347119851215288
aF-0.00051687557199740666
aF0.0024564060105082921
aF-0.00090275985423326707
aF-0.0015490254092031957
aF0.0040078346220513324
aF0.00038627347997569235
aa(lp633
F-0.004219351000444271
aF0
aF0.0084745988321383373
aF0
aF-0.0084033835279067291
aF-0.0042373694737615642
aF0
aF0
aF0.0042554011808237958
aF0
aasg15
S'LLTC'
p634
sg17
(lp635
g19
(g21
S'\x00\x00\x00\x00\x00\x00\x00\x00'
tRp636
ag19
(g21
S'K\xe8\xdbwP\xefx?'
tRp637
ag19
(g21
S'\x82\xa2\x06\x9f\xb7\x95\x87?'
tRp638
ag19
(g21
S"\xabP\xc8'\xe3\xf3\x90?"
tRp639
ag19
(g21
S'.\xf2\x10}\xedP\x92?'
tRp640
ag19
(g21
S'&}A{V>\x8f?'
tRp641
ag19
(g21
S'\xca:\x8b\xbf\xa5\x95\x92?'
tRp642
ag19
(g21
S'\xdf\xfda\x16\x13\xa8\x92?'
tRp643
ag19
(g21
S'\n\xfa\x19\x9d\x87\x10\x91?'
tRp644
ag19
(g21
S'r\x00o\xc2\xae\x08\x8b?'
tRp645
asg32
(lp646
F-0.0027104862393779916
aF-0.0025479531603184928
aF0.0061308071163009153
aF0.0023696512400253997
aF-0.0018574805495191824
aF0.0030451699704758884
aF0.00050597064419013354
aF0.0016857383681726124
aF0.0025244363017312898
aF0.00083933187846230791
asg34
(lp647
g19
(g21
S'\x00\x00\x00\x00\x00\x00\x00\x00'
tRp648
ag19
(g21
S'\x84\xa6\x1d\xec\x9c\xc5p\xbf'
tRp649
ag19
(g21
S'\xc0\x19\x99h\xed\x9fj\xbf'
tRp650
ag19
(g21
S'\x13\xd11\x9e\xbe\xb6y\xbf'
tRp651
ag19
(g21
S'\xa0\x94\xda-\xa8\xda}\xbf'
tRp652
ag19
(g21
S'\x90\x94\xe3#C\xbfy\xbf'
tRp653
ag19
(g21
S'RX\x97N\x8c\x0ec\xbf'
tRp654
ag19
(g21
S'\x13\x9e\x7f\xcf\xd5)8?'
tRp655
ag19
(g21
S'\x83M0\x85P\xcdK?'
tRp656
ag19
(g21
S'\x8bZ\xf7\xa1\xbdA\x87?'
tRp657
asg46
g19
(g21
S'\xb9\x85\xf8\xbbn\x87\xeb?'
tRp658
sa(dp659
g15
S'SPXLINE'
p660
sg34
(lp661
g19
(g21
S'\x00\x00\x00\x00\x00\x00\x00\x00'
tRp662
ag19
(g21
S',\x98\x17K\xb9wP?'
tRp663
ag19
(g21
S'\x00\xfd\xb9\xd2\xfd\xd8^?'
tRp664
ag19
(g21
S'\xbf\xddUqb\x08j?'
tRp665
ag19
(g21
S'\x88\rO\x11\xf9\xcep?'
tRp666
ag19
(g21
S'\xfb\xd6f8\x08Qn?'
tRp667
ag19
(g21
S'r?\xd8s\x0c`t?'
tRp668
ag19
(g21
S'\xd4\x12\x86\x1a\x87\xd8u?'
tRp669
ag19
(g21
S'\x06\x97d\r\xcf\xc5x?'
tRp670
ag19
(g21
S'jd9c\xb4R{?'
tRp671
asa.