(lp0
(dp1
S'matches'
p2
(lp3
(lp4
F-0.006802668620569974
aF0.0
aF0.01027518708631975
aF-0.003391081213000022
aF-0.0034021912854198784
aF0.0068280413612226976
aF0.003388946040343826
aF-0.013513829832057112
aF0.013698955181253551
aF-0.0304047339474062
aa(lp5
F-0.01438294199824394
aF-0.02361365926947034
aF0.008695638121246383
aF0.00026945129534604285
aF0.008887634265233467
aF0.004805129930119752
aF-0.003188068470518389
aF0.00026648162831074664
aF0.020783457471267607
aF-0.022448476642965436
aa(lp6
F-0.01063829255665962
aF-0.005376358205610375
aF0.005405419678051234
aF-0.004032260236760633
aF0.0056303727829492235
aF0.001345883347050141
aF0.002688182331095472
aF-0.010723868040150427
aF0.009485080359229112
aF-0.014093938400536552
aa(lp7
F-0.006416334068699788
aF-0.006378083393127671
aF0.010511153265934877
aF0.00015878195714169818
aF0.004842815217869261
aF0.00489849095362261
aF-0.004638760835934317
aF-0.001500742519758955
aF-0.0016613162989853596
aF-0.024167948276575597
aa(lp8
F-0.014883726302190628
aF-0.004721437046183023
aF0.013282737337452142
aF-0.0018727809543808878
aF0.026266429257436285
aF0.0228519303674608
aF-0.003574621849205627
aF-0.006278029818669731
aF0.010830329966480883
aF-0.020535608295584346
aa(lp9
F-0.029787327580345805
aF-0.013158539483258375
aF0.0177777706589099
aF-0.008732309545317644
aF0.008809234507897902
aF0.013100562674229214
aF0.0
aF-0.012931157238377535
aF0.017466717446888092
aF-0.01716686860354217
aa(lp10
F-0.020411196150535587
aF-0.001499025360902668
aF-0.0010508194584076963
aF-0.010970918427957646
aF0.009573087973293341
aF0.0031607100606707676
aF-0.008702157573810517
aF-0.00923268688534316
aF0.012374025133144189
aF-0.012071827463403687
aa(lp11
F-0.014991742689355613
aF-0.004284072455026156
aF0.010643147382846004
aF-0.004817393462563367
aF0.00810538939400664
aF0.011725232458648146
aF0.010154512170060975
aF-0.011254357704294123
aF0.0039986859128082865
aF-0.014824602119599217
aa(lp12
F-0.002848991398838586
aF-0.011428594857038453
aF0.008670555784833039
aF-0.0028653876214501275
aF0.008620725202974496
aF0.002848991398838463
aF0.0
aF-0.0056817954114199536
aF0.014285656707278358
aF-0.005633780429728089
aa(lp13
F-0.01887357699221098
aF-0.014961832061068762
aF0.010229386236825958
aF0.009205277692543637
aF0.0018242626938279804
aF0.0021244309559939386
aF-0.004542701393095265
aF-0.01764526924247029
aF0.008361721895323727
aF-0.02733415233415235
aasS'symbol'
p14
S'DHI'
p15
sS'stDev'
p16
(lp17
cnumpy.core.multiarray
scalar
p18
(cnumpy
dtype
p19
(S'f8'
p20
I0
I1
tp21
Rp22
(I3
S'<'
p23
NNNI-1
I-1
I0
tp24
bS'\x00\x00\x00\x00\x00\x00\x00\x00'
p25
tp26
Rp27
ag18
(g22
S' \x95k\xffu\xa8\x82?'
p28
tp29
Rp30
ag18
(g22
S'\x1a\xc0\x07FV1\x89?'
p31
tp32
Rp33
ag18
(g22
S'\xb9W\xaa\xdb\x1c\x7f\x97?'
p34
tp35
Rp36
ag18
(g22
S'?t^\x14\x08\xd6\x9c?'
p37
tp38
Rp39
ag18
(g22
S'\xc9\x95\r\xd8\xf1A\x9a?'
p40
tp41
Rp42
ag18
(g22
S'+\x0c\xf7l\xcd\xdb\x9f?'
p43
tp44
Rp45
ag18
(g22
S'\xf9\xfb\xcbhx\xea\x9e?'
p46
tp47
Rp48
ag18
(g22
S'\x96\xb6\x0b\x97\xe7\x19\xa0?'
p49
tp50
Rp51
ag18
(g22
S'-]@P?\xd4\x9e?'
p52
tp53
Rp54
asS'current'
p55
(lp56
F-0.018304400074001262
aF-0.006542329080798228
aF0.01152446455303057
aF-0.005859310086566123
aF0.0117877861235171
aF0.005825242718446593
aF-0.0022522522522521473
aF-0.00709445340212839
aF0.01623903812149925
aF-0.029721954946565828
asS'future'
p57
(lp58
g18
(g22
S'\x00\x00\x00\x00\x00\x00\x00\x00'
p59
tp60
Rp61
ag18
(g22
S'\x02{\x88\x05<\xaep\xbf'
p62
tp63
Rp64
ag18
(g22
S'\x8b\x96\x05\x07\xf1\\a?'
p65
tp66
Rp67
ag18
(g22
S'\xe5\xcb\xe9}\xa8\xc6\x7f?'
p68
tp69
Rp70
ag18
(g22
S'V\x01\xda\xe2$;\x8d?'
p71
tp72
Rp73
ag18
(g22
S'\x8c&\x01\xb0b\x1c\x83?'
p74
tp75
Rp76
ag18
(g22
S"P\xa3)\xd2B'\x8b?"
p77
tp78
Rp79
ag18
(g22
S'\n\\x\xc9*!\x93?'
p80
tp81
Rp82
ag18
(g22
S'\xe2\xf8\x8eN*|\x9d?'
p83
tp84
Rp85
ag18
(g22
S'6\xe1?@\xa7L\xa0?'
p86
tp87
Rp88
asS'sharpe'
p89
g18
(g22
S'\xea-\x15\'"\xeb\xf0?'
p90
tp91
Rp92
sa(dp93
g2
(lp94
(lp95
F-0.00797482695934378
aF0.004628563545411817
aF0.008486813045996286
aF-0.0069728280986948174
aF0.002421374065446105
aF0.006038618451850635
aF0.00960378297609204
aF0.008323525813059396
aF0.014386680379118449
aF-0.00023244806501802092
aa(lp96
F-0.00892545011693177
aF-0.003463814260128648
aF-0.002259334558234404
aF-0.0071415928111524425
aF0.007543867800692016
aF0.006832490598459108
aF0.002958045576659051
aF0.005204691351375723
aF0.007421479834274684
aF-0.0008565961916602676
aa(lp97
F-0.008725770468085436
aF-0.010131221122263376
aF-0.0032078091050295643
aF-0.006944440250445769
aF0.005457960478074227
aF0.005767609703729339
aF0.005565833431440024
aF0.007044626894906936
aF0.010492973414791756
aF-0.007252318815977767
aa(lp98
F-0.0050749581169089375
aF-0.0030141736305720986
aF0.002093044389602835
aF-0.0018565979599255058
aF0.011392749669537452
aF0.0036781338853018835
aF0.0045808981773303005
aF0.0011399388529794248
aF0.01002047068893475
aF-0.009019131342394498
aa(lp99
F-0.01606976516017563
aF-0.00781415069545493
aF0.00894263177686757
aF-0.0007091125385241402
aF0.0002838951971113023
aF0.004398063702045945
aF0.0023306812706742905
aF0.005425625644103532
aF0.001541809271071081
aF-0.004758291839210492
aa(lp100
F-0.0008869770353392774
aF-0.0008879167555237165
aF0.009330641683946077
aF-0.007923703021821726
aF0.007395348295568313
aF-0.0005872979863639268
aF0.004701039025770905
aF0.00424041016044253
aF0.00669770868854435
aF-0.004483626931062675
aa(lp101
F-0.0120482068714079
aF0.012195136397550627
aF0.007228862526694808
aF-0.0077750679727546165
aF0.012658181038016617
aF0.011309537576124207
aF0.002354389090165111
aF0.007633536453605407
aF0.006410323635509914
aF-0.003474355094815993
aa(lp102
F-0.011814033712545599
aF0.007763171474158103
aF0.0014892871739457683
aF-0.0017947336494214927
aF0.012586031797266504
aF0.005022601567537897
aF0.010196814431191794
aF0.012842329923104405
aF0.013518135936473096
aF-0.0022878158789598254
aa(lp103
F-0.008479233055423944
aF0.0009293908784155514
aF0.007615276849570209
aF-0.007189057320059139
aF-0.0009282068411218992
aF-0.00018578059895388204
aF0.00037172523710120385
aF0.005388392926350839
aF0.007946635611696283
aF-0.004033686081344357
aa(lp104
F-0.021002433233531185
aF-0.0019502995619617017
aF0.010991705214310905
aF-0.002174418177138915
aF0.008310913048992315
aF0.0012120773611509598
aF0.004358363921288836
aF-0.0012053929651929941
aF-0.0014482536128023527
aF-0.00580123419103119
aasg14
S'TGT'
p105
sg16
(lp106
g18
(g22
S'\x00\x00\x00\x00\x00\x00\x00\x00'
p107
tp108
Rp109
ag18
(g22
S'p\xdf\xf1\x041\x7f\x81?'
p110
tp111
Rp112
ag18
(g22
S'O\x93\xae\xfcT"\x85?'
p113
tp114
Rp115
ag18
(g22
S'\xb3\xc4\xeb\x15\x13\xcf\x8a?'
p116
tp117
Rp118
ag18
(g22
S"\x91\x95d\xa9@'\x90?"
p119
tp120
Rp121
ag18
(g22
S'\xcf0\xfd4\xd1\x89\x93?'
p122
tp123
Rp124
ag18
(g22
S'6;\xaaT\x0f{\x91?'
p125
tp126
Rp127
ag18
(g22
S'\xe0\xf0\xa3\xa9\xf6\xfd\x91?'
p128
tp129
Rp130
ag18
(g22
S"'\x90\xf0d\xba!\x98?"
p131
tp132
Rp133
ag18
(g22
S'\xe6\x17a\xfdX\x90\x97?'
p134
tp135
Rp136
asg55
(lp137
F-0.014584532170795469
aF-0.0022425026497608883
aF0.007941249863387824
aF-0.004310896579941979
aF0.007763466358757906
aF0.007259229629629629
aF0.004559567717592871
aF0.008199091879981222
aF0.013360412236996726
aF-0.006162238552052778
asg57
(lp138
g18
(g22
S'\x00\x00\x00\x00\x00\x00\x00\x00'
p139
tp140
Rp141
ag18
(g22
S'I(\xcb\xca\xce\x16x?'
p142
tp143
Rp144
ag18
(g22
S'\x7f\x9d\x03=\x04/p?'
p145
tp146
Rp147
ag18
(g22
S'\xf2\xc3o\x84\xb8\x0c|?'
p148
tp149
Rp150
ag18
(g22
S'\xb5\x10[}\x88>\x82?'
p151
tp152
Rp153
ag18
(g22
S'\x0bFP\xf9\xb3\x01\x8a?'
p154
tp155
Rp156
ag18
(g22
S'H#\xda|\x04>\x90?'
p157
tp158
Rp159
ag18
(g22
S'\x1e;\xfe5\x8d\xc4\x94?'
p160
tp161
Rp162
ag18
(g22
S'\x8d\xb7\x1c\xda\xbd\xc3\x9b?'
p163
tp164
Rp165
ag18
(g22
S'0r=G\xe0}\x9d?'
p166
tp167
Rp168
asg89
g18
(g22
S"'\x11p/i\x06\xf4?"
p169
tp170
Rp171
sa(dp172
g2
(lp173
(lp174
F-0.01703056519411449
aF-0.023100840631228532
aF0.011823554360592991
aF0.0076404558161976555
aF-0.004460321279110063
aF0.0044803048782956255
aF0.00044605640969699276
aF-0.005795856665613687
aF0.013452969315697413
aF-0.013274389362913518
aa(lp175
F-0.004587665642177063
aF-0.009217330207530478
aF0.013954765204729172
aF-0.004587665642177063
aF0.0
aF0.002304260444596293
aF-0.002298963035011128
aF0.0
aF0.0046088093183381485
aF-0.013762709820601854
aa(lp176
F-0.0015171120052308727
aF-0.019373233970811903
aF0.010071679600622746
aF0.004026822318422531
aF0.0024828200791986023
aF0.005143785093855368
aF0.001516326381986492
aF0.0041635361431992535
aF0.000376947829382891
aF-0.002637583147894794
aa(lp177
F0.0
aF-0.018018410455940263
aF0.009174515412405297
aF0.0
aF0.009091108893743595
aF0.00450416700789135
aF0.004484837761796257
aF0.0
aF0.008927900725888423
aF-0.013274203748886444
aa(lp178
F-0.0062716310168596185
aF-0.009464622952259609
aF0.012741924756689562
aF0.006288069086670279
aF-0.015624660097021865
aF0.009524704010430722
aF0.0
aF-0.00314677086582712
aF0.0031567042909218246
aF-0.01572619262615808
aa(lp179
F-0.006024054182860618
aF-0.024242454753693913
aF0.006211136541402489
aF0.0
aF-0.006172796459748704
aF0.006211136541402489
aF0.0
aF0.012345798023047883
aF0.006097517737321597
aF-0.012121328064037042
aa(lp180
F-0.010607209603513672
aF-0.017153719834062147
aF0.010635544125345795
aF-0.0024285436029620852
aF-0.002434386373877749
aF0.0024403270728517042
aF-0.008655634557736018
aF0.009003995528704699
aF0.007571676044347809
aF-0.0115404169415189
aa(lp181
F0.0
aF-0.02010026307592149
aF0.0
aF0.0
aF0.0
aF0.005128142788112354
aF0.0
aF-0.0051019791107305605
aF0.005128142788112354
aF-0.0051019791107305605
aa(lp182
F-0.004566168743218178
aF-0.022935739678067293
aF0.014084378481591053
aF0.0
aF-0.0046295879581801916
aF0.0
aF0.004651120730707115
aF0.0
aF0.0
aF-0.0046295879581801916
aa(lp183
F-0.009569400789043787
aF-0.022544294879554026
aF-0.0032948571301070766
aF0.0187327867405006
aF0.004326669754983026
aF0.001615523440148467
aF0.0005376713692967102
aF-0.0018806940359795987
aF0.009690337796293315
aF-0.015462492071832059
aasg14
S'HD'
p184
sg16
(lp185
g18
(g22
S'\x00\x00\x00\x00\x00\x00\x00\x00'
p186
tp187
Rp188
ag18
(g22
S'>\x0c\xcfE{\x14\x82?'
p189
tp190
Rp191
ag18
(g22
S'N\x15P\x1c\xdf:~?'
p192
tp193
Rp194
ag18
(g22
S'\x85\xdd/\x12;\x13\x8d?'
p195
tp196
Rp197
ag18
(g22
S'u>\x1e,\r\xdb\x95?'
p198
tp199
Rp200
ag18
(g22
S'\xc6\x16\xf7\xa2\x85\x9e\x96?'
p201
tp202
Rp203
ag18
(g22
S'H1\xfe\x17\n\xe5\x91?'
p204
tp205
Rp206
ag18
(g22
S';\xa0\xdd\x99U8\x94?'
p207
tp208
Rp209
ag18
(g22
S'\xde\x81\x05m[\xe0\x90?'
p210
tp211
Rp212
ag18
(g22
S'yi+2x\xe6\x9b?'
p213
tp214
Rp215
asg55
(lp216
F-0.007762167076579058
aF-0.02026131549305611
aF0.010300231719901527
aF0.006559725018254313
aF-0.0017274026246277576
aF0.003775397229631832
aF0.0009402522894471564
aF-0.0010959762188191091
aF0.005407484410775699
aF-0.014732177902605458
asg57
(lp217
g18
(g22
S'\x00\x00\x00\x00\x00\x00\x00\x00'
p218
tp219
Rp220
ag18
(g22
S'\xcaO\xf5\xc5(\xd6i?'
p221
tp222
Rp223
ag18
(g22
S'(\x99\xc1;\x16j{?'
p224
tp225
Rp226
ag18
(g22
S'\x96\xf5o?+\x00\x84?'
p227
tp228
Rp229
ag18
(g22
S'\x89\x8a\x17\x05\xcb~\x88?'
p230
tp231
Rp232
ag18
(g22
S'\xaa?\x10X?n\x88?'
p233
tp234
Rp235
ag18
(g22
S'\xfef\xcc\x90\x05Q\x8d?'
p236
tp237
Rp238
ag18
(g22
S'\x8fJV\x7f_}\x95?'
p239
tp240
Rp241
ag18
(g22
S'\xe5O\x03\x84*\xfc\x96?'
p242
tp243
Rp244
ag18
(g22
S'\xd6{\x81\xf3\x8b\xd9\x9c?'
p245
tp246
Rp247
asg89
g18
(g22
S'L=\x0f\xd2e\x8b\xf0?'
p248
tp249
Rp250
sa(dp251
g2
(lp252
(lp253
F-0.01165404771803564
aF-0.0026022591144858878
aF-0.007745657067291893
aF0.016762544923097027
aF-0.01058669321442567
aF-0.014375588202453406
aF0.006049592067862523
aF-0.009555219283620898
aF-0.00806720921840263
aF0.019032481848620574
aa(lp254
F-0.012048216482247201
aF-0.0060975519303398664
aF-0.004089987660229381
aF0.018480508199738212
aF0.002016111995179062
aF-0.02816898631005102
aF0.004140751710278106
aF-0.014432954053402969
aF0.0020920325036980045
aF0.018789159500525957
aa(lp255
F-0.008988865395098225
aF-0.001491032054976863
aF-0.0036088444779946525
aF0.013113493020612476
aF0.002712056320687858
aF-0.0008606584772648787
aF0.008982537578408506
aF0.004756021356526259
aF-0.0014565824754182858
aF0.011912126697230784
aa(lp256
F-0.00792701872492987
aF-0.0053267750408713095
aF-0.008033149224739754
aF0.010552128670500753
aF-0.010684762870413877
aF0.005645549797005911
aF0.008054604789693455
aF-0.010653717982864951
aF-0.0017131573585155559
aF0.012993356724631859
aa(lp257
F0.0037295389328536933
aF-0.003715681155322846
aF0.005595756201661508
aF0.016699612852323697
aF-0.009126749234599121
aF-0.0018393045228027143
aF0.005533808491568291
aF-0.014676085257134005
aF0.0037211412848703364
aF0.022264230808546795
aa(lp258
F-0.015860691268620036
aF0.007133429477780867
aF-0.0013116087493265554
aF0.011295035395292323
aF0.002337605116789099
aF-0.007773983705686446
aF0.008357242149667104
aF-0.009841980732072769
aF0.0015694497112445853
aF0.006267901630037052
aa(lp259
F-0.01599997385612162
aF0.008130027298818218
aF-0.008064462994522442
aF0.012195081449723515
aF0.0
aF-0.004016077755567727
aF-0.004032191322387991
aF-0.01214578916206633
aF0.0
aF0.024590164603827586
aa(lp260
F-0.008025711052012168
aF-0.008090551720105942
aF-0.008156635909472585
aF0.0
aF-0.003289504304563503
aF0.0016502275961297885
aF0.003294829301113595
aF-0.011494219425011174
aF0.0016610975456078424
aF0.016583807986420847
aa(lp261
F-0.008171908776999696
aF-0.002118637712522523
aF0.004482234664158965
aF0.012447137075483236
aF0.002087676345783536
aF0.007638841001109396
aF0.0073512465284968
aF-0.0061572630641994015
aF-0.006654449205089367
aF0.024486922929212264
aa(lp262
F0.005341135673402216
aF-0.002897835793858166
aF-0.007992287483142936
aF0.01782225356155899
aF0.0031182678518976185
aF-0.005021476985490645
aF0.0033645463155505847
aF-0.015568884053692944
aF-0.00048655449989951966
aF0.007789686996018106
aasg14
S'HRL'
p263
sg16
(lp264
g18
(g22
S'\x00\x00\x00\x00\x00\x00\x00\x00'
p265
tp266
Rp267
ag18
(g22
S'\xf0@`{\x83\xa1~?'
p268
tp269
Rp270
ag18
(g22
S'\x9e\xae\x96\xab\x84\x1d\x8a?'
p271
tp272
Rp273
ag18
(g22
S'\x1a\x8f\xb4\x00\xa1j\x87?'
p274
tp275
Rp276
ag18
(g22
S'2>\x8f\r\x16\xc3\x88?'
p277
tp278
Rp279
ag18
(g22
S'\x08w\x97\xf8\x8a\x95\x93?'
p280
tp281
Rp282
ag18
(g22
S'W\xdduj\x04\xc9\x93?'
p283
tp284
Rp285
ag18
(g22
S'\xf4\x93,"u\xb2\x89?'
p286
tp287
Rp288
ag18
(g22
S'\xb3"\xe8\xd9F\xc7\x91?'
p289
tp290
Rp291
ag18
(g22
S'\xb4/\x8c\xe8\xa3\x1c\x9b?'
p292
tp293
Rp294
asg55
(lp295
F-0.009205955650515366
aF-0.0026132695300020445
aF-0.004948995921338908
aF0.022820333528379276
aF-0.0022882723766669256
aF-0.0068807910871331954
aF0.008083112242583972
aF-0.01002285280772351
aF0.0005785363031531133
aF0.02168256721595837
asg57
(lp296
g18
(g22
S'\x00\x00\x00\x00\x00\x00\x00\x00'
p297
tp298
Rp299
ag18
(g22
S'B\xa0Lx\xa5U^\xbf'
p300
tp301
Rp302
ag18
(g22
S'\xddj\xbf[4[]?'
p303
tp304
Rp305
ag18
(g22
S'3v\x19\xc3\xdc\xbbM?'
p306
tp307
Rp308
ag18
(g22
S'\xcb\xa5;\xc7\x1b(m?'
p309
tp310
Rp311
ag18
(g22
S'v=\xfdg\xac\x0e|?'
p312
tp313
Rp314
ag18
(g22
S'u\x03\x0f\x14\x0e\xe4\x8c?'
p315
tp316
Rp317
ag18
(g22
S':k\xe9\x14\x80\x96\x90?'
p318
tp319
Rp320
ag18
(g22
S'\xb2\x10\xee\x00\xba\xac\x98?'
p321
tp322
Rp323
ag18
(g22
S'\x8a$\x14\xef#o\x9b?'
p324
tp325
Rp326
asg89
g18
(g22
S'?\xb4\xf9\xec\xaf0\xf0?'
p327
tp328
Rp329
sa(dp330
g2
(lp331
(lp332
F-0.008089106648643684
aF-0.005097031826401294
aF-0.00409827850241081
aF-0.005143691183205073
aF0.005170285535327791
aF-0.0010286072266312042
aF-0.005149464359493875
aF0.003105587270813088
aF0.01135209812779351
aF-0.01836744517765674
aa(lp333
F-0.0009423738026462835
aF-0.0002694675608838305
aF-0.005122051061962763
aF-0.004088886332373535
aF0.0078007310554813886
aF0.003666545320349779
aF-0.0010824200159662543
aF-0.007585061391157987
aF-0.006414546089652821
aF-0.03351652595371258
aa(lp334
F-0.001118555353193359
aF-0.01455770401913137
aF-0.01522726093401638
aF-0.006231204488671554
aF0.00023217581539673314
aF-0.0006965047204607895
aF-0.003949865931071513
aF-0.002799156051169997
aF-0.0021052249911961
aF-0.038912316765877926
aa(lp335
F0.0005063291139241298
aF-0.00404858299595151
aF-0.003556859756097523
aF0.0025496684064421865
aF0.0020346388606307312
aF0.0035532485505964826
aF-0.0050581689428425836
aF0.0030503304524656183
aF0.0005068423720222002
aF-0.024316109422492245
aa(lp336
F0.0006891983866782652
aF-0.010674967970994218
aF0.0001740658283938008
aF0.0017436716833334957
aF0.002610918892531659
aF0.004166692089228539
aF-0.006569869904316571
aF0.0010442290210399597
aF0.012169700118528557
aF-0.008931639423329724
aa(lp337
F-0.0014672706609886543
aF-0.007592512893923379
aF-0.0061697842281691305
aF-0.003973184431206249
aF-0.002493192481934172
aF0.0049987734946604885
aF-0.0009947968467409953
aF-0.005725647894933359
aF0.019278902799951557
aF-0.011299399424463494
aa(lp338
F0.004847161350731783
aF-0.005380336232026675
aF0.004476741444465579
aF0.0006576656580063009
aF0.005446045969863179
aF0.009151976676657955
aF-0.004627034055938696
aF-0.001673500752502703
aF0.00875396922419305
aF-0.014401750344782789
aa(lp339
F0.009174018643925422
aF-0.01818197891182168
aF0.0
aF0.0
aF0.009259717789072568
aF0.0
aF-0.009174762081416765
aF-0.009258967467559862
aF0.009345497121374847
aF-0.03703586987023945
aa(lp340
F-0.010456282234818221
aF-0.012487965326894166
aF0.000648546625890099
aF-0.010693462363599127
aF0.004258071957168077
aF0.0026092649601299847
aF-0.00650614823239096
aF0.0
aF0.0117877901722435
aF-0.01488670554000987
aa(lp341
F0.0
aF-0.01171831180373976
aF-0.007905701601912455
aF-0.007968047839144928
aF0.0
aF0.008032047578496678
aF-0.007968047839144928
aF0.008032047578496678
aF0.007968699764405071
aF-0.01581075643249134
aasg14
S'UNP'
p342
sg16
(lp343
g18
(g22
S'\x00\x00\x00\x00\x00\x00\x00\x00'
p344
tp345
Rp346
ag18
(g22
S'l\xf7\xcf\x0f\x18\x03\x7f?'
p347
tp348
Rp349
ag18
(g22
S' \x86!0Rq\x8b?'
p350
tp351
Rp352
ag18
(g22
S'\xc1\xdd\xbb\xa6\xe8\xf8\x8f?'
p353
tp354
Rp355
ag18
(g22
S'\x13\xe2\x0f\xc6\x86V\x8d?'
p356
tp357
Rp358
ag18
(g22
S'v\xbe\x00\x8d\x89\x86\x93?'
p359
tp360
Rp361
ag18
(g22
S'\x15Xh\x11\x04\xe6\x92?'
p362
tp363
Rp364
ag18
(g22
S'm\xc3\n\x88\xe8\x0b\x93?'
p365
tp366
Rp367
ag18
(g22
S'\x96\x033\x18z\n\x95?'
p368
tp369
Rp370
ag18
(g22
S'\xba\xd6p\x06\x0cU\x99?'
p371
tp372
Rp373
asg55
(lp374
F-0.0007884658795728009
aF-0.008229015987250772
aF-0.005001159183865823
aF-0.005140564254734295
aF0.005626432684644904
aF0.005823178674967444
aF-0.00499482370279593
aF-0.0018254876936568776
aF0.012001406149306391
aF-0.03715835738470348
asg57
(lp375
g18
(g22
S'\x00\x00\x00\x00\x00\x00\x00\x00'
p376
tp377
Rp378
ag18
(g22
S'\xad\x9ax\xccq\xd9U?'
p379
tp380
Rp381
ag18
(g22
S'\xf6\x16jK\xe8\x03t?'
p382
tp383
Rp384
ag18
(g22
S'\x86W\x81 \x17\x98e\xbf'
p385
tp386
Rp387
ag18
(g22
S'`0=\xb3\xf5h[?'
p388
tp389
Rp390
ag18
(g22
S'u\xfb\x11o\x81\x9a\x7f?'
p391
tp392
Rp393
ag18
(g22
S'\xd50\xfa\x07\x80Ex?'
p394
tp395
Rp396
ag18
(g22
S'\xdb\x7f\x82\x1f\xe9\xc7\x8d?'
p397
tp398
Rp399
ag18
(g22
S'+\x9e\xed\x1a\xaeX\x95?'
p400
tp401
Rp402
ag18
(g22
S'\xf2\xf0\t\x82ft\x99?'
p403
tp404
Rp405
asg89
g18
(g22
S'\xc8/\xd7\x94\xcd\x13\xf0?'
p406
tp407
Rp408
sa.