(lp1
(dp2
S'matches'
p3
(lp4
(lp5
F0.040238989621515023
aF0.016891878031981236
aF-0.023754161300249443
aF0.063808071804748345
aF-0.044305817436522704
aF-0.012552309916408348
aF-0.027966105990949425
aF-0.0078465146971870639
aF-0.039894552407956786
aF0.10031116785174059
aa(lp6
F0.031249910077376562
aF0.013774446748014015
aF-0.01086996910415825
aF0.076923183948498577
aF0
aF0.002550954492367149
aF-0.012722318406543391
aF0.0051545046115129634
aF0
aF0.056410089926305924
aa(lp7
F0.024566443213466804
aF0.020451365369850982
aF0.0034556945761159328
aF0.046831820472404424
aF-0.062499819172893448
aF0.0091224913329404651
aF-0.027816108512819675
aF-0.021459421938762529
aF-0.021929959257386888
aF0.017937514196105869
aa(lp8
F0.021582728085415687
aF0.016984276551526963
aF-0.03380856403326718
aF0.04384488702897639
aF-0.010904689632868728
aF0.026541406740873474
aF-0.019888598809132428
aF0.012986983823768087
aF-0.032451894088254149
aF0.053416188003338812
aa(lp9
F0.027658999945318393
aF0.0074916831370450375
aF-0.029468456090486244
aF0.047105545269707234
aF-0.007588150430487192
aF0.0098307138071604301
aF-0.023255816716339452
aF0.030454088922769768
aF-0.028210703010273976
aF0.045894497214593113
aa(lp10
F0.051383418868556692
aF0.010526271651671422
aF-0.033482148319397123
aF0.041570533880553213
aF-0.036955000069225252
aF0.013046909877706736
aF-0.0075757099763604559
aF-0.014503855956948527
aF0.014717313755734924
aF0.011450309186073843
aa(lp11
F0.091588853058495512
aF0.050228310502283047
aF-0.032608749999999943
aF0.039325901085724799
aF-0.037837891891891906
aF-0.0028089327420748552
aF-0.02647881690140853
aF0.0063656246316189996
aF-0.028177057399485818
aF0.0053254437869822407
aa(lp12
F0.0039151685651197601
aF0.026183886604477076
aF-0.0086863824506756993
aF0.024096582510427633
aF-0.018716767245335674
aF0.026703092333008629
aF-0.0063694982394366072
aF0.012820436153962316
aF-0.0084387687401239996
aF0.081914902063183317
aa(lp13
F-0.0091615846622603633
aF0.012328243485996955
aF-0.028784977981767584
aF-0.0031346465380422471
aF-0.045454535945905337
aF0.0035939532767225967
aF0.011936666840923401
aF0.0085520517829073481
aF-0.014619746656387397
aF0.089614272163166503
aa(lp14
F0.033898326588531022
aF0.040983548035728595
aF-0.013779476508061881
aF0.032934209817151817
aF-0.013526623409412136
aF0.025465225361954984
aF-0.007640909292747868
aF0.011549613488151061
aF-0.024738339505417498
aF0.043902348345429533
aasS'symbol'
p15
S'CHK'
p16
sS'stDev'
p17
(lp18
cnumpy.core.multiarray
scalar
p19
(cnumpy
dtype
p20
(S'f8'
I0
I1
tRp21
(I3
S'<'
NNNI-1
I-1
I0
tbS'\x00\x00\x00\x00\x00\x00\x00\x00'
tRp22
ag19
(g21
S'\xb2\xd9\x95\xd6/t\x94?'
tRp23
ag19
(g21
S'\xa4\xbc\ne\xf2\xde\x94?'
tRp24
ag19
(g21
S'\x15\xc0C\x8da\x1e\x9b?'
tRp25
ag19
(g21
S'}{T\xe1ah\x9b?'
tRp26
ag19
(g21
S'\x9a\xa7\n6\x84\xd6\x9e?'
tRp27
ag19
(g21
S'\xf8\x8c\xa0\x89\x01\xbc\xa1?'
tRp28
ag19
(g21
S'vB\x10APD\xa4?'
tRp29
ag19
(g21
S'g2\x16X\xdc\xa6\xa1?'
tRp30
ag19
(g21
S'\xf4\x9dt\x83[\xf3\xa1?'
tRp31
asS'current'
p32
(lp33
F0.054187192118226764
aF0.032710280373831696
aF-0.031674208144796309
aF0.072429906542055986
aF-0.063180827886710256
aF0.011627906976744146
aF-0.027586206896551547
aF0.0023640661938533771
aF-0.014150943396226532
aF0.095693779904306317
asS'future'
p34
(lp35
g19
(g21
S'\x00\x00\x00\x00\x00\x00\x00\x00'
tRp36
ag19
(g21
S'n\x0f\xff\xc2\xcahd\xbf'
tRp37
ag19
(g21
S'\x82\x9f@\xf0zl\x97?'
tRp38
ag19
(g21
S'P\xba}1\xc5\xed\xa0?'
tRp39
ag19
(g21
S'^\xafe]FN\xa1?'
tRp40
ag19
(g21
S'\xb8\xe9z\x94\x7f$\x99?'
tRp41
ag19
(g21
S'\xd0g\x1d\xc7\x84\xb2\xa6?'
tRp42
ag19
(g21
S'Z\xdd\x1b6\x0b\xc5\xa9?'
tRp43
ag19
(g21
S'\xa0\xb1\xc4?\xb7k\xb0?'
tRp44
ag19
(g21
S'\x80\xc0\xf87 \xde\xb0?'
tRp45
asS'sharpe'
p46
g19
(g21
S'#4l\xb1\xc9\x11\xfe?'
tRp47
sa(dp48
g3
(lp49
(lp50
F0.017567528008870677
aF0.019256280046854566
aF-0.0047773482770339512
aF-0.0024001835020759439
aF-0.0069991094009645705
aF0.0059470506815124937
aF0.0076637295301899286
aF0.022598876839611697
aF-0.0031874551177085032
aF0.0019185772678571588
aa(lp51
F0.0014630245615662215
aF0.022604964907707911
aF-0.002781915075160193
aF-0.012591403353659179
aF-0.0098504051909430439
aF0.010950863329305865
aF0.0086200656653502364
aF0.020269197001435785
aF-0.010007344204708954
aF0.0075626670133510186
aa(lp52
F0.022034017550906882
aF0.034825848615961989
aF0.0048309839631121045
aF-0.012820364745897195
aF-0.0064936592880263386
aF0.0081698485339212895
aF0.0097244107513734246
aF0.016051520696573032
aF0.0063192649453710503
aF0.018838242139097097
aa(lp53
F0.026816587922326583
aF-0.0015164244105852042
aF0.001012507529579129
aF-0.0021915135417145382
aF-0.014529431967200489
aF0.021944083020942071
aF0.0087233739419786613
aF0.015300153800144467
aF-0.0031121829896045136
aF0.0024646396878376937
aa(lp54
F0.016497516655793708
aF0.012827817185121201
aF0.008529339179979771
aF0.0038441986116796167
aF-0.017871347743623766
aF0.0098780310428656943
aF-0.007206857855482301
aF0.018407559052763159
aF0.00050938548542645836
aF0.010177816872199551
aa(lp55
F0.010111902010366769
aF0.011714556208671473
aF-0.00021048295186819912
aF-0.006948864489929628
aF-0.0027566089613246382
aF0.0099936470582750996
aF0.0031579321308084444
aF0.010283276499430331
aF-0.00041668297755461617
aF0.0095893024309192665
aa(lp56
F0.0136611965966525
aF0.018867916912995726
aF0.015873108619365587
aF-0.0052083307946140843
aF-0.020942496112695327
aF0.0053475914418518221
aF0
aF0.010638293635701637
aF0.002631577910389329
aF0.0052494400233766203
aa(lp57
F0.027095536898947236
aF0.026377210969738146
aF-0.011681390637162307
aF-0.0094559837615393379
aF-0.009545551199088894
aF0.002409032454626986
aF0.012019042166311495
aF0.02850479724590526
aF0.016164925154712361
aF-0.0022721577144766986
aa(lp58
F0.016551731741461261
aF0.012211619537958981
aF-0.0026809547746664561
aF-0.0080644848431451702
aF-0.012195143764336355
aF-0.0013717383415986211
aF0.012362662833384618
aF0.0094979259635858248
aF0.0067204055681225252
aF0.0026702866846172865
aa(lp59
F0.0082643944218107005
aF0.012295170455226856
aF0.0040484870497807619
aF-0.016129024243413424
aF-0.012295044191628315
aF0.0041494072978383477
aF0.016528916150712235
aF0.012195083769189676
aF-0.0080320624263122854
aF0.0080970988295835204
aasg15
S'QCOM'
p60
sg17
(lp61
g19
(g21
S'\x00\x00\x00\x00\x00\x00\x00\x00'
tRp62
ag19
(g21
S'\xad\xa7\xdcS]\x0f\x87?'
tRp63
ag19
(g21
S'\x80\xcc\xae)IS\x9c?'
tRp64
ag19
(g21
S'W\xb0\xedq\xa75\xa0?'
tRp65
ag19
(g21
S',-\xd6i\xba\x0e\xa1?'
tRp66
ag19
(g21
S'&\x1dm?\x1c \xa6?'
tRp67
ag19
(g21
S'A%\xfa|*\x89\xa6?'
tRp68
ag19
(g21
S"\xf9\x8de\x89\xc3'\xa4?"
tRp69
ag19
(g21
S'r\xdf\x10\x1c\xed\x81\xa7?'
tRp70
ag19
(g21
S'"\xf5\xe7\x90\x06\x85\xa9?'
tRp71
asg32
(lp72
F0.026789187070574639
aF0.019805771083822865
aF0.00037350140753505154
aF-0.010640283740899762
aF-0.020000018867924525
aF0.0082787833707890467
aF0.010693164229390185
aF0.023805006612507094
aF-0.0012917512694547251
aF0.0092387289216320934
asg34
(lp73
g19
(g21
S'\x00\x00\x00\x00\x00\x00\x00\x00'
tRp74
ag19
(g21
S'\x0c\xb3j~\x9c\xc1\x84?'
tRp75
ag19
(g21
S' 5\xee\x1f[\x0c\x96?'
tRp76
ag19
(g21
S'\x1a\xc9\xad\xcb\xfa\xe8\x99?'
tRp77
ag19
(g21
S'^6s\xbd24\xa0?'
tRp78
ag19
(g21
S'\r\x8d\xb0\xc7q\x1f\xa0?'
tRp79
ag19
(g21
S'\x8e\xd4\xc0\xffW\x97\xa5?'
tRp80
ag19
(g21
S'\x9e8\x9b\x13RT\xa7?'
tRp81
ag19
(g21
S'nW\xf9\x020^\xa7?'
tRp82
ag19
(g21
S'\x9dX`l|\x9a\xa9?'
tRp83
asg46
g19
(g21
S'\xf8\x81qyt\r\xf0?'
tRp84
sa(dp85
g3
(lp86
(lp87
F0.010140063640031848
aF0.01768648665490467
aF0.0075152448008474386
aF0.0013985382462108292
aF-0.007448769793707166
aF0.0042213890175096785
aF0.00093416420892400767
aF0.017732079603308571
aF0.00045851574265402324
aF0.0096242776225742739
aag54
ag50
a(lp88
F0.01188278060355764
aF0.0067850049126771689
aF-0.0010368121342185317
aF0.0012973210579065126
aF-0.007255726141477706
aF0.0046985107368466656
aF-0.00051961823993839284
aF0.020795404336555006
aF-0.0033104455387947371
aF0.0033214409882968143
aa(lp89
F0.022053000370316204
aF0.014720485899599525
aF0.013712260006102624
aF0.004313212678690604
aF0.0093695002806690082
aF0.011603195693959791
aF0.0080290311860119062
aF0.018964363145677728
aF0.0013026323736396567
aF-0.009850949824914421
aa(lp90
F0.0063131705199307294
aF0.015056467729810398
aF0.0045911823908279716
aF-0.0073826358620159484
aF-0.008145972425234585
aF0.014640313646357444
aF-0.013725198476276379
aF0.018019671568072132
aF0.0036803201694233629
aF0.0022699552952275643
aa(lp91
F0.0016149918646979474
aF0.01301442635898502
aF0.01112551957228004
aF-0.0026343085069348484
aF-0.0016910816782994081
aF0.0057030244499652492
aF0.0015626937706972677
aF0.01335048800037248
aF0.0026825815697034904
aF-0.001361502816211863
aa(lp92
F0.012864703983777937
aF0.028085848726803316
aF0.011484252453727929
aF-0.00034405641933505428
aF0.0032696265140316001
aF0.0036020412281654308
aF0.0056400959029258612
aF0.023963290278721898
aF0.0056431535269710108
aF0.0079220993563293759
aa(lp93
F0.017445239982978533
aF0.014844658566774402
aF-0.0043089390577715457
aF-0.0046691262450128243
aF-0.007665879713810983
aF0.011299386080751518
aF0.0025082827627147318
aF0.0088706770216362384
aF0.0074644300491589904
aF-0.0028064581641175832
aa(lp94
F0.013616576358358381
aF0.0085697476142517423
aF-0.0067745551938834048
aF-0.002080930322204539
aF0
aF0.011468937288083984
aF0.0072157196432397182
aF0.024903277732079079
aF-0.0024408432996833799
aF0.0058947662232637669
aasg15
S'ZBH'
p95
sg17
(lp96
g19
(g21
S'\x00\x00\x00\x00\x00\x00\x00\x00'
tRp97
ag19
(g21
S'\x06*X\xa4\xd6wz?'
tRp98
ag19
(g21
S'b\x89\xdc\xdd\x8d\xd3\x91?'
tRp99
ag19
(g21
S'\x07>q#i\xc9\x9d?'
tRp100
ag19
(g21
S'\x84\x14\x87\xfe\xd3\xc4\x9e?'
tRp101
ag19
(g21
S'G#^;*\x9b\xa3?'
tRp102
ag19
(g21
S'\x83Q\x02\x90\x13\xfc\xa6?'
tRp103
ag19
(g21
S'\\\xbc\x10\xd0\xa9\xa2\xa5?'
tRp104
ag19
(g21
S'-`@(\x0f\x15\xa9?'
tRp105
ag19
(g21
S'`s)\x14\xb3\x88\xa6?'
tRp106
asg32
(lp107
F0.017166673042020859
aF0.015598380497783903
aF0.010323079977791376
aF0.0024921333068317303
aF-0.0060490802121313438
aF0.015256373870522127
aF0.0019707505499322589
aF0.023520751274891439
aF0.0015213628114448953
aF0.0030380316111603758
asg34
(lp108
g19
(g21
S'\x00\x00\x00\x00\x00\x00\x00\x00'
tRp109
ag19
(g21
S'jCK d\x12x?'
tRp110
ag19
(g21
S'D\xb2\xb1\x97\xc0\r\x90?'
tRp111
ag19
(g21
S'\x88T_u{u\x94?'
tRp112
ag19
(g21
S'#\x9dWs-b\x98?'
tRp113
ag19
(g21
S'-T\\\x8fp\xaf\x95?'
tRp114
ag19
(g21
S'\xd0\x9a!\xe36k\x9e?'
tRp115
ag19
(g21
S'\xe0"\x9e\x99\x15\xa6\x9e?'
tRp116
ag19
(g21
S'\x18\xd4\x01\xa8\xc4\xfc\xa1?'
tRp117
ag19
(g21
S'V\x8e\xa4\x18s\x95\xa5?'
tRp118
asg46
g19
(g21
S'\xf4\x89\x8e\xf6\x90\xa6\xee?'
tRp119
sa(dp120
g3
(lp121
(lp122
F0.013789279442210537
aF0.0038085743220855933
aF0.0092140824996634306
aF0.0080558742797250549
aF0.021843324998524438
aF-0.0026069414614098181
aF-0.019341261856586085
aF0.014392328053464007
aF-0.0063058699820392316
aF0.0021153310395351592
aa(lp123
F0.013526391492147934
aF0.011775841288185113
aF0.0080694788608349829
aF-0.0093904131978762868
aF0.015695454266873802
aF-0.0041310238323485427
aF-0.0073743511338646905
aF0.016251403645231206
aF-0.0035029388483385228
aF-0.00091697219486415861
aa(lp124
F0.011495351727450498
aF0.0037865463037028793
aF0.011322299017824654
aF0
aF0.02985068526186296
aF0
aF-0.021739418041917705
aF0.0074075075846710761
aF-0.0073530398859455457
aF-0.0037046553877086766
aa(lp125
F0.0087456115505392343
aF0.0062282223417274357
aF0.0032186292789135695
aF-0.0034550613169286662
aF0.016344710901691983
aF-0.0053606416797698292
aF-0.010044095840307838
aF0.0076713942229392059
aF-0.00024561437618398767
aF0.0063866926852035287
aa(lp126
F0
aF-0.0044842840779921603
aF0.0060059434212171034
aF-0.0029849870769122874
aF0.016467043598294921
aF-0.0088366049063181157
aF-0.019316385782472117
aF0.019696857888141996
aF-0.0014858431067313784
aF0
aa(lp127
F0.0037824792083346903
aF0.0023551928891995698
aF0.0032894872461471602
aF-0.0023419551574350686
aF0.02629112992480959
aF0
aF-0.0082342596619834601
aF0.016143978236283552
aF-0.012256048175585449
aF-0.00045957716711881452
aa(lp128
F0.0090647674116959669
aF0.0056968069568749296
aF0.0047929630653044042
aF-0.00043366063710818022
aF0.0088937211424266055
aF-0.009030273183473575
aF-0.0082447717431313756
aF0.010282229742166049
aF-0.00064958626399415191
aF0.00086666211999778767
aa(lp129
F0.0086889951099566095
aF-0.0010134492974005307
aF-0.00050725196882328116
aF0.0048210740149188438
aF0.017424327560290016
aF-0.0096798113628276672
aF-0.015037648959376195
aF0.01068707587012103
aF-0.0030212380668520862
aF0.005303122800465335
aa(lp130
F0.012297210659803543
aF0.0099544525862709388
aF0.0020046539424996954
aF-0.0031677064465574869
aF0.019568458559323702
aF-0.0098424872404772445
aF0.00049699942419422925
aF0.012584901804951558
aF-0.002289516422617952
aF0.0063924568792573704
aa(lp131
F0.013100431665385777
aF-0.0086206486047441348
aF0
aF-0.017391335176182823
aF0.022123962813762995
aF-0.0043290403133197861
aF-0.013043472791322413
aF0.026431706831530098
aF-0.0042918813472835344
aF-0.004310267613685189
aasg15
S'PSA'
p132
sg17
(lp133
g19
(g21
S'\x00\x00\x00\x00\x00\x00\x00\x00'
tRp134
ag19
(g21
S'\x08/\x85\xd4\xcbU~?'
tRp135
ag19
(g21
S'\x9f\x06Y\x06B\x19\x8e?'
tRp136
ag19
(g21
S'/\xd1\xec\xd9\xb8-\x9c?'
tRp137
ag19
(g21
S'\x90O\xbc\x19\xe6&\x9e?'
tRp138
ag19
(g21
S'\x04\x87\x07\xda\x03e\x9c?'
tRp139
ag19
(g21
S'R\x83\xfeD\xdf\x85\x9a?'
tRp140
ag19
(g21
S'\xc2x\x94C}\x0c\xa1?'
tRp141
ag19
(g21
S'\xc4\xf2\xb0<\x0bK\xa1?'
tRp142
ag19
(g21
S'\x94\x8aE\xf6\xc4\xc4\x9e?'
tRp143
asg32
(lp144
F0.011710131161940293
aF0.0034368175848812211
aF0.0062202316093900555
aF-0.0068469033506303586
aF0.023242964438117797
aF-0.0061984486870889418
aF-0.016851996729322419
aF0.014027886413538766
aF-0.0030310018346311695
aF-0.0029622505687734043
asg34
(lp145
g19
(g21
S'\x00\x00\x00\x00\x00\x00\x00\x00'
tRp146
ag19
(g21
S'\xfc\xa2u^\xd5Zp?'
tRp147
ag19
(g21
S'\xdd \x8az\x95J\x81?'
tRp148
ag19
(g21
S'F%e"\x8c\xbb\x86?'
tRp149
ag19
(g21
S'<\xcaor\x1ap\x93?'
tRp150
ag19
(g21
S'`F8\x14\x91\x80\x9b?'
tRp151
ag19
(g21
S'"\xc5\x99\xf4\x84;\xa0?'
tRp152
ag19
(g21
S'vH\x84\xc3V\xde\xa1?'
tRp153
ag19
(g21
S'\xf3G ?\xba\xf4\xa3?'
tRp154
ag19
(g21
S'\xf1C\x96^\x16\xee\xa4?'
tRp155
asg46
g19
(g21
S'\xf5Q\xf2\x04\x85\xc4\xf5?'
tRp156
sa(dp157
g3
(lp158
(lp159
F0.018633489951507605
aF0.021342428428944134
aF0.035820966592493703
aF-0.0028827995663342041
aF-0.034682180579559685
aF0.0059886103425988617
aF0.020832867889480761
aF-0.011661384867126473
aF0.0088495295276927871
aF0.01169547780606821
aa(lp160
F0.022681010946400022
aF0.034273586717027307
aF0.037037701103261239
aF0
aF-0.01503767898214751
aF-0.0019077834025138904
aF0.015296445489679903
aF-0.0094168929516475937
aF-0.0038022696053559178
aF0.022900827264248916
aag52
a(lp161
F-0.0035311834628982274
aF0.021970545705271929
aF0.0023114599118620842
aF-0.0064573992383773864
aF-0.029015977672345306
aF0.010757773525505191
aF0.010880154872334912
aF0.029246308869340043
aF0.012957299837514206
aF0.015260812338233414
aa(lp162
F0.021438486701073442
aF0.0261675926039735
aF0.060297483279331043
aF-0.0046763876224624164
aF-0.0011745897425491322
aF0.014867670136063096
aF0.0004138637988631011
aF0.012575471993955169
aF0.0064547814209128139
aF0.026221817959949323
aa(lp163
F0.026882190104932147
aF-0.010471596370022433
aF0.031746151903757916
aF-0.0051280492502356664
aF-0.020619331474875401
aF0.010526719659438756
aF0.010417062166338762
aF0.01546291828474018
aF0.015228494860720141
aF-0.0049996814947061118
aa(lp164
F-0.010461545526460956
aF0.01057214651857747
aF0.027076943354709553
aF-0.0013481658949343112
aF-0.036748097359185591
aF0.0090314682316037457
aF0.0084875817147108071
aF0.016679471792193128
aF0.020469609873270896
aF0.012831780600749571
aa(lp165
F0.017441865920141849
aF0.034285724824912558
aF0.022099454081844227
aF-0.016216220931525874
aF-0.010989014237037943
aF0.0083333358237880507
aF0.0055096435062518389
aF0.010958907339843095
aF0.018970195232948798
aF0
aa(lp166
F0.0051111244628713002
aF0.024447472787092826
aF0.036655186972841883
aF0.0023941143916176959
aF0.0031232449747277146
aF-0.0109889803151392
aF0.0090741012627999305
aF0.022840217814839504
aF0.010084670366104796
aF0.010875390379976485
aa(lp167
F0.0070193109743620875
aF0.024391133338542991
aF0.040812512395937611
aF0.029414315536939507
aF-0.028573835717057312
aF0.0032700217064945301
aF0.016285859695175917
aF0.019233211373639814
aF0.025157624512786348
aF0
aasg15
S'RHI'
p168
sg17
(lp169
g19
(g21
S'\x00\x00\x00\x00\x00\x00\x00\x00'
tRp170
ag19
(g21
S'0\xf63\x94*\x85\x92?'
tRp171
ag19
(g21
S'\xd8\xb4b\x16\xfc;\xa0?'
tRp172
ag19
(g21
S'6;\x84\x90\xe0O\x9c?'
tRp173
ag19
(g21
S'k\xf47j\x80\x1e\x9c?'
tRp174
ag19
(g21
S'\x05lN\x03\x970\x9e?'
tRp175
ag19
(g21
S'\xab\xfe\x9b\x01\xc8\x0f\x9e?'
tRp176
ag19
(g21
S'\xa0\x9c\xdfSE6\xa0?'
tRp177
ag19
(g21
S']\x84\xb1\x05\xd2\x14\xa2?'
tRp178
ag19
(g21
S'\xad\xf8\xc0bg&\xa1?'
tRp179
asg32
(lp180
F0.024587735030373137
aF0.033879194459581853
aF0.042053551121069024
aF-0.0020963836477986436
aF-0.030199630766826132
aF0.011102085025724443
aF0.011783583288698262
aF0.023292774571010446
aF0.013191877909984561
aF0.019657927988661134
asg34
(lp181
g19
(g21
S'\x00\x00\x00\x00\x00\x00\x00\x00'
tRp182
ag19
(g21
S'\xfa\xb5\xda\xe4Ol\x83?'
tRp183
ag19
(g21
S'\xfa\xf2\xe8\xfe\x9c\x92{?'
tRp184
ag19
(g21
S'\xfb\xd8\x06\xc6T4q?'
tRp185
ag19
(g21
S'E&\xdd\xaa\x06\x84e?'
tRp186
ag19
(g21
S'\xbb\xdf&+\xf1\n\x8a?'
tRp187
ag19
(g21
S'\xd1\x97:\r\x90\x89\x99?'
tRp188
ag19
(g21
S'\xe6\x8e\xc1v\xbdL\x9d?'
tRp189
ag19
(g21
S'#\xd3\x10\x8e\x84\xb5\x9f?'
tRp190
ag19
(g21
S'\xacO\x11\x1c\x89\xea\xa4?'
tRp191
asg46
g19
(g21
S'\xd3V\xf3\x0f{\x83\xf3?'
tRp192
sa(dp193
g3
(lp194
g50
ag87
ag89
ag54
ag92
a(lp195
F0.031446613198416927
aF0.018292599845662526
aF0.0059879972444182522
aF0.011904910652207768
aF-0.011764851150425429
aF0.0059525560905026266
aF0.023668529994448687
aF0.040462441320526177
aF0
aF0.0055555304764183808
aa(lp196
F0.017849964442458059
aF0.023349783061600616
aF0.0225281273655005
aF0.0031070621079667777
aF-0.010043173619315619
aF0.0077747277088672318
aF0.0044218703779726285
aF0.0032783706686756297
aF-0.0029875830891786573
aF0.011892470463037281
aa(lp197
F0.011362216941592103
aF0.022470622722396118
aF0.015385645303536174
aF-0.0021656686340665553
aF-0.02385969448214946
aF0.017778523331920759
aF-0.0043677150532194032
aF0.026315445548867826
aF0.0021379040051387925
aF-0.002133343122333221
aa(lp198
F0.0094590811233503311
aF0.0031292199520287726
aF0.0031118314424636818
aF0.0093198398728715111
aF-0.012307315649218092
aF0.018220993421679873
aF0.0092620682164619994
aF0.03364121480206031
aF-0.0088783897552070449
aF-0.0029811441725514434
aa(lp199
F0.012140884047816769
aF0.018246356379752072
aF0.011946261835642378
aF0.0086899258906630601
aF-0.010240581102543731
aF0.0062407817025305016
aF0.001958520012329718
aF0.0045609910589899235
aF-0.013783023142630987
aF0.0041104959614605037
aasg15
S'JBHT'
p200
sg17
(lp201
g19
(g21
S'\x00\x00\x00\x00\x00\x00\x00\x00'
tRp202
ag19
(g21
S'r\x07\x97\xc9`\xac\x81?'
tRp203
ag19
(g21
S'(0\x98\x11\x06\x1a\x98?'
tRp204
ag19
(g21
S'\n\xd4\xd9\x13\x90\x12\x9f?'
tRp205
ag19
(g21
S'dN\xf9=r\xd3\x9e?'
tRp206
ag19
(g21
S'\x9e.\xf1\xccMW\xa1?'
tRp207
ag19
(g21
S'\xebf\x89\xe7\xc4\xdf\xa5?'
tRp208
ag19
(g21
S'\xa8S\xe9\x0b\xce\xcc\xa3?'
tRp209
ag19
(g21
S"'z\xcd\xfe\xaa(\xa7?"
tRp210
ag19
(g21
S'V\xdb\xe0\x05\xd5\x8c\xa7?'
tRp211
asg32
(lp212
F0.017420749282910708
aF0.019678008697214238
aF0.014160362876176872
aF0.0060545903867539833
aF-0.0092114961732128742
aF0.012644155513676845
aF0.0091810500873778893
aF0.031052861934670901
aF-0.0001176705882352949
aF0.0038828333658743378
asg34
(lp213
g19
(g21
S'\x00\x00\x00\x00\x00\x00\x00\x00'
tRp214
ag19
(g21
S'\x1ea\x99\xa9\xe9\xc5E\xbf'
tRp215
ag19
(g21
S'M\x05\x03\x9da\xe1`?'
tRp216
ag19
(g21
S'\xabV"\xb2\xb8\xda\x83?'
tRp217
ag19
(g21
S'\xfc\x07M\x85 \x01\x94?'
tRp218
ag19
(g21
S'\xc5\xb8\xbaV}t\x96?'
tRp219
ag19
(g21
S'\xff9\xfa\x00\t#\xa4?'
tRp220
ag19
(g21
S'\x92a\x9c"Y\xfc\xa3?'
tRp221
ag19
(g21
S'\xa5\xff\x0b.K\xeb\xa3?'
tRp222
ag19
(g21
S'\xe9\xef\xd8y\x0c\xca\xa4?'
tRp223
asg46
g19
(g21
S'\xdc\x9et\xbb\x9e?\xec?'
tRp224
sa(dp225
g3
(lp226
(lp227
F0.1770573566084786
aF0.0030602871939736358
aF0.0098567939484441626
aF0.020450871960280548
aF-0.0061489637895694267
aF0.015582058102246912
aF0.021435018050541581
aF-0.0046388115749945516
aF0.0019973590324598727
aF0.0031007529080507236
aa(lp228
F0.15034864464487041
aF0.014244277211551838
aF-0.037921920883180665
aF0.072993741370402612
aF0.032416548067035679
aF-0.011874405840773761
aF0.0040056430920252925
aF-0.0026587436997877697
aF-0.01866753908301183
aF0.016304346871982092
aa(lp229
F0.10075564649220672
aF-0.020594976347783841
aF-0.023364498343862689
aF0.057416299049319136
aF0.0045248891961897379
aF0.031531547614190143
aF-0.0087336287725675171
aF-0.030837019787260233
aF0.0022727284424701893
aF0.02267574860589007
aa(lp230
F0.10588956760541245
aF-0.031181051444932717
aF-0.025064107535972407
aF0.0026292738192979829
aF-0.020687606821580835
aF0.023802400389445841
aF0.0066840944831418865
aF0.0046189519314979123
aF-0.040517260347218226
aF-0.0032943886176050154
aa(lp231
F0.21139613284666517
aF-0.020185209876543212
aF-0.025578013622579613
aF0.0099567402852103089
aF-0.011010831079471073
aF0.018836098814288962
aF0.039580757544374616
aF0.039601514404402786
aF0.025395285254274879
aF0.0081981772481067236
aa(lp232
F0.11500009137259909
aF0
aF0
aF0.035874436522026466
aF-0.034632031892278134
aF-0.0044845504107915227
aF-0.0090088458568692714
aF0.018181818181818261
aF-0.0089287345939272501
aF-0.013513268785303907
aa(lp233
F0.17777765483461688
aF-0.0094338588632082512
aF-0.0047635908395401621
aF0.0047863912490485848
aF0.0095237041439572949
aF-0.0094338588632082512
aF0
aF0.057142857142857148
aF-0.01801811770166202
aF-0.0045884760942130507
aa(lp234
F0.019555298705307408
aF-0.0078823657903594815
aF0.0054290734689088037
aF0.071908317924166548
aF0.0056517870893596197
aF0.029444155689603506
aF0.0017802180092259424
aF0.012913113886573182
aF-0.0087719275420114484
aF0.01463124693567746
aa(lp235
F0.073115848073430162
aF-0.028301871749498757
aF0.0183387262326478
aF0.074152532408539015
aF0.0039447781645136903
aF0.018664040255634749
aF0.033751201238673458
aF0.00093284938138157674
aF0.0065237609809529725
aF0.0074074003708637899
aa(lp236
F0.11856734689033548
aF-0.010099370399061175
aF-0.026316374737373464
aF-0.016632047240930817
aF-0.01057016217647232
aF0.029914530518885169
aF-0.026971553171827489
aF0.029852035283937289
aF0.0020697950512370889
aF0.016528808087703382
aasg15
S'ENDP'
p237
sg17
(lp238
g19
(g21
S'\x00\x00\x00\x00\x00\x00\x00\x00'
tRp239
ag19
(g21
S'Z?\xee\xcf\xf3\x80\xa3?'
tRp240
ag19
(g21
S'\x10\x99\xcf\xf7Z\x9e\xa5?'
tRp241
ag19
(g21
S'\xadk\xad\xf8\xa8-\xa5?'
tRp242
ag19
(g21
S'[\x81\xea4\x8b\xc7\x9b?'
tRp243
ag19
(g21
S'\xa5d.\xacb;\xa1?'
tRp244
ag19
(g21
S'\xeb\xe2?j93\xa3?'
tRp245
ag19
(g21
S'\xc8\xe4\x8dS\xa8\xf9\xa5?'
tRp246
ag19
(g21
S'K\xbeR\xd8\x02\x83\xa1?'
tRp247
ag19
(g21
S'\xb2*e\x86\xed\x89\xa0?'
tRp248
asg32
(lp249
F0.18261512052593129
aF-0.016059356636234864
aF-0.021343377275580656
aF0.089159717767799906
aF-0.024735041224970503
aF0.032608758007775247
aF0.010526374269005682
aF0.0081017935126278702
aF-0.014925373134328446
aF0.013403205128205094
asg34
(lp250
g19
(g21
S'\x00\x00\x00\x00\x00\x00\x00\x00'
tRp251
ag19
(g21
S'{f\xa07\x03\x8f\x8c?'
tRp252
ag19
(g21
S'{,\xd7\xefH/\x95?'
tRp253
ag19
(g21
S'\xdd`\xa9\x80\xde%\x87?'
tRp254
ag19
(g21
S'\xd5r\xd7\xe7\xdd\x05\x99?'
tRp255
ag19
(g21
S'\x03\xc6SE^\xb8\x96?'
tRp256
ag19
(g21
S'\x9d\xa0\xd4 b\x12\x9a?'
tRp257
ag19
(g21
S'O\xb2\xd6\xc0{\xd8\xa0?'
tRp258
ag19
(g21
S'XA\tb\xa6c\xa4?'
tRp259
ag19
(g21
S'z&v/\xd1\x88\xa1?'
tRp260
asg46
g19
(g21
S'\x191N\xf8\x95\xf6\xf0?'
tRp261
sa(dp262
g3
(lp263
(lp264
F0.026957607634671713
aF0.046874961964908382
aF0
aF-0.01865673176829712
aF-0.019011240517846487
aF-0.023255978147169107
aF0.015873067202737241
aF0.023437480982454191
aF0.0076337037084471832
aF0.022727252093700957
aa(lp265
F0.017093269373303455
aF0.0084045927798391991
aF0
aF-0.033333241192377627
aF-0.025862556708384037
aF-0.0088491697141338897
aF0.008928176664677389
aF0.026549186551123947
aF0.0086201033072494538
aF0.025641524121501367
aa(lp266
F0.025931000450207808
aF0.0040334042205753158
aF0.0042849099632007821
aF-0.016799988291571401
aF-0.031733081240822393
aF-0.012885150253687101
aF-0.008229290477007177
aF0.0094420086885733182
aF0.0053855424172802495
aF0.025373483688868329
aa(lp267
F0.0227277122708728
aF0.012120152007621768
aF-0.0079840795334976851
aF-0.0060355720832675477
aF0.0020247386613637792
aF-0.010101495169580286
aF0.0040815290325710374
aF0.032520504304633616
aF0.0078738152970124903
aF0.031250172899757941
aa(lp268
F0.027649707141819392
aF0.026906077110884007
aF0.01310025542974839
aF0
aF-0.034481305211691862
aF-0.0223222094719654
aF0.036530300574933873
aF0.030836342210046885
aF0.0085476654353157325
aF-0.0042384802898207475
aa(lp269
F0.027480984789167523
aF0.0074294205344790643
aF0.007374631297284666
aF-0.0058565619941651449
aF-0.019145770421742214
aF-0.016516568582301772
aF0.013740497456047605
aF0.0045181583107103251
aF0.010494656628601202
aF0.008902138512038844
aag52
ag161
a(lp270
F0.0015160556215962921
aF0.0081744005226786313
aF-0.0024023253376215001
aF-0.012341964989462923
aF-0.011886729557638894
aF-0.010178827088738933
aF0.0015580627717114793
aF0.025850021019300291
aF0.010995597760269453
aF0.028096709451317561
aa(lp271
F0
aF0.019230756467862407
aF0
aF-0.0047169237981959013
aF-0.0047394966926238543
aF-0.019047608613483268
aF0.0097088441282099733
aF0.024038390278898876
aF0.0046947788839509256
aF0.028037475616594799
aasg15
S'AMG'
p272
sg17
(lp273
g19
(g21
S'\x00\x00\x00\x00\x00\x00\x00\x00'
tRp274
ag19
(g21
S'\xee\x04*e\\\xf9}?'
tRp275
ag19
(g21
S'\xc27\x05\x96b~\x92?'
tRp276
ag19
(g21
S'U@\xd6\xc9f\xbb\x95?'
tRp277
ag19
(g21
S'\x15U\x00^\x106\x97?'
tRp278
ag19
(g21
S'\xba\xe6\xcb\xca\xd2\xec\x9e?'
tRp279
ag19
(g21
S'\xbep\xc3}T\x88\xa1?'
tRp280
ag19
(g21
S'\\\xd0w)\xb8\xc1\xa2?'
tRp281
ag19
(g21
S'EX\xd5\x87\x05\x02\x9d?'
tRp282
ag19
(g21
S'dC\xe3\xb1P|\x98?'
tRp283
asg32
(lp284
F0.028704867888340854
aF0.025487118634904209
aF0.0053563775073167405
aF-0.016338729378738981
aF-0.030909214769197581
aF-0.012966726090368466
aF0.014420566578042391
aF0.033417720799213124
aF0.0080662221937533706
aF0.026934371458638487
asg34
(lp285
g19
(g21
S'\x00\x00\x00\x00\x00\x00\x00\x00'
tRp286
ag19
(g21
S'~\xb69\xfb\x98\xfc\x89?'
tRp287
ag19
(g21
S'\x92~N\nQ\xb7\x81?'
tRp288
ag19
(g21
S'\xba\xc5\x86\xfd{\xbf\x89?'
tRp289
ag19
(g21
S'\x16J7\x1a\xeb\x12\x91?'
tRp290
ag19
(g21
S'\x1a\xe0O\x15\x94k\x8f?'
tRp291
ag19
(g21
S'\x86\x1f\xf4\x1d9[\x8b?'
tRp292
ag19
(g21
S'\xa7\xbd\x08*dh\x89?'
tRp293
ag19
(g21
S'\x88j\xf7\x00y\x1d\x86?'
tRp294
ag19
(g21
S'\xda\x80$\xf8\xfd\xc9\x98?'
tRp295
asg46
g19
(g21
S'/\t\x82\xef\xc12\xf0?'
tRp296
sa(dp297
g3
(lp298
(lp299
F-0.0028554683723225277
aF0.0070637518881553427
aF0.01895733759007585
aF-0.0027907217284841596
aF-0.00055967548691650065
aF0.00093333687496260421
aF-0.016971283570921657
aF0.0034149323355818343
aF0.0045377544573447001
aF-0.0028233101651411454
aa(lp300
F0.0090299267853989531
aF0.0080831103335807768
aF0.018900478634721243
aF-0.0047780555907953959
aF-0.0098841573409233913
aF0.0034226799794218796
aF-0.010233090875504577
aF0.0074670096763908463
aF0.0028505945793824688
aF-0.0096645774629916838
aa(lp301
F-0.0016292211173071383
aF0.010117532591399298
aF0.028756031606137634
aF-0.012562806681781672
aF-0.0085877899035580307
aF0.0035290410737959643
aF-0.013746803643215472
aF0.010048589576860514
aF0.0038511243151342607
aF-0.0025575432259351224
aa(lp302
F0.0073892000127918208
aF-0.0024449787497436669
aF0.026960743107471718
aF-0.0047732522182437941
aF-0.0071942781690684807
aF0.0060386857969530784
aF-0.013205293583758019
aF0.0048661621867448854
aF-0.0012106493306917225
aF-0.0084848146952868266
aa(lp303
F-0.0014546630265826158
aF0.0025089430642432019
aF0.0098489785295314981
aF-0.003037788889209038
aF0.0019244487364641863
aF0.0045618248394196231
aF-0.0086041668723111642
aF0.0024911442865453593
aF-0.0018437114228456626
aF-0.0090748315710287124
aa(lp304
F-0.011175163004014091
aF-0.0065621895010633813
aF0.022018409006662323
aF-0.0039497937096685228
aF-0.0019826392887809007
aF0.011377989685763092
aF-0.014821521115979189
aF0.0070691606435992526
aF0.0026997302401089874
aF-0.012744520621346091
aa(lp305
F-0.0049857316068353825
aF0.0053686338224724784
aF0.020291907176728134
aF0.0026169164003702504
aF0.00052197979851454008
aF-0.0024347595183692411
aF-0.012726631556892134
aF-0.0015892620784628644
aF0.004421633474295401
aF-0.0082761310939619536
aa(lp306
F0.0040322539739864032
aF0.0020079985253543893
aF0.027054160566396725
aF-0.00097565477480550248
aF0.0029297613981778769
aF0.0068159157088503279
aF-0.0038684680709504095
aF0.0075517316424938211
aF0.0082205281930880572
aF-0.0023981171408148923
aa(lp307
F-0.0058708390666059145
aF0.011811018723349281
aF0.019455244943289637
aF0.011450377075281135
aF0
aF0.0037735834055090227
aF-0.011278191022041894
aF0.0038022798457670801
aF0
aF-0.011363631829023146
aa(lp308
F0
aF0
aF0.030836909754764791
aF-0.0042736796054496998
aF0
aF-0.0042922426747635974
aF-0.0086201631356024842
aF0
aF0.0043480046589430364
aF-0.0086585849651014488
aasg15
S'SRE'
p309
sg17
(lp310
g19
(g21
S'\x00\x00\x00\x00\x00\x00\x00\x00'
tRp311
ag19
(g21
S'\xbeZ\xca\xc3\xd5\x11\x84?'
tRp312
ag19
(g21
S'\xc1l\x9dfW\xe9\x8a?'
tRp313
ag19
(g21
S'\x0f-\xc6\xd0\x10\x04\x8c?'
tRp314
ag19
(g21
S'\xa3\x17f4Hf\x8d?'
tRp315
ag19
(g21
S'\x05M\xf6%z\xc9\x91?'
tRp316
ag19
(g21
S'\x1fVn\x87\xb9\xf3\x8b?'
tRp317
ag19
(g21
S'\x93\xdb\xf9\x11X\xef\x96?'
tRp318
ag19
(g21
S'H\xdb\x9f\xd1\x1dg\x97?'
tRp319
ag19
(g21
S'\t?\x91\xec90\x9a?'
tRp320
asg32
(lp321
F-0.0017625164145615936
aF0.0075153475640103362
aF0.024714658705347139
aF-0.0046482986664172924
aF0.00096924840900957136
aF0.0079225529563829809
aF-0.012576436681222767
aF0.0092871308913343859
aF0.00157742527756184
aF-0.0093621488374998566
asg34
(lp322
g19
(g21
S'\x00\x00\x00\x00\x00\x00\x00\x00'
tRp323
ag19
(g21
S'>\x90\xf1u~/k?'
tRp324
ag19
(g21
S'F$\x06\xe1k\xdd\x84?'
tRp325
ag19
(g21
S'\xeb\x95\xe4c2\xb0\x8e?'
tRp326
ag19
(g21
S'\x8b\xa3H\x85.\x1f\x8c?'
tRp327
ag19
(g21
S'\x96\xd6\xc8\x02_G\x92?'
tRp328
ag19
(g21
S'br$V\x8d]\x93?'
tRp329
ag19
(g21
S'`\x8au;1\xcf\x92?'
tRp330
ag19
(g21
S'p\x14?\xb6\xb2&\x92?'
tRp331
ag19
(g21
S'.\xe7:\x91\x0b\xa3\x97?'
tRp332
asg46
g19
(g21
S'Y,\xaf"\xde\xe1\xec?'
tRp333
sa(dp334
g3
(lp335
(lp336
F0.0055714600720909568
aF0.014311790835080621
aF0.014337925346990068
aF-0.004038773676096884
aF0.0047308396307019357
aF0.01031393576071769
aF-0.0017756403416976875
aF0.003779611084586246
aF-0.00066420267159309463
aF-0.0082005200425230278
aa(lp337
F0.005738931188137791
aF0.0156918216322206
aF-0.0029845175917162215
aF0.0012326170042364702
aF0.0068589363153169734
aF0.013275077000046218
aF-0.0041371680066710805
aF0.0067508935053507838
aF-0.0018913429003373531
aF-0.02256671873902788
aa(lp338
F0.013751736337580166
aF0.026782635641646166
aF0.021680214216472381
aF0.00033156158069423583
aF-0.0053494025341924737
aF0.0080672227165645097
aF-0.008336131632268472
aF0.0013450133232008829
aF-0.00067160334615189675
aF-0.016129024109308235
aa(lp339
F0.01424017067213232
aF0.00072618672636041667
aF0.022496363825752787
aF-0.00023661566423194719
aF0.0042593513958662293
aF0.005655090622576733
aF-0.0070290436601048627
aF0.014865428476064447
aF0.0039526331632067863
aF-0.011347881142199281
aa(lp340
F0.020970379674767895
aF0.019734185859975956
aF0.028436105547307189
aF-0.0042243170625119513
aF-0.0050135374918374859
aF0.0065891722993349786
aF0.0065459952263291028
aF-0.0042080694373728125
aF-0.0053784452200445554
aF-0.0208574488159111
aa(lp341
F0.011811053589263917
aF0.0077820529086070041
aF0.028956896835216905
aF-0.0037512460364081696
aF0.0018826854344780612
aF-0.0075187512056522354
aF-0.003787954510502158
aF-0.0019015761962635287
aF0.0019051990774784048
aF-0.0095062915330288295
aa(lp342
F-0.0042598724828805329
aF0.015614950955285664
aF0.03559390667769164
aF-0.0079316360326651056
aF0.010660103411905059
aF0.0077079413591275275
aF-0.010467007070691314
aF0.01281533152547722
aF0.0028117977833021059
aF-0.015822183675294248
aa(lp343
F0.010814177823236439
aF0.024020966534863443
aF0.025428763326296629
aF0.0015378188420852857
aF0
aF0.0076775772446995034
aF-0.0066666290236155794
aF0.0053690931429629741
aF0.0055311991829112613
aF0.0041729504900476907
aa(lp344
F0.02743905298043197
aF-0.0037091734072896383
aF0.026061040311043702
aF-0.005805538633664729
aF0.0058394397265964411
aF0.0029027693168322943
aF-0.0036179201520721545
aF0.0021786184018574078
aF-0.0072464059696279032
aF-0.018978099637327758
aa(lp345
F0.012730117381269656
aF0.021177690548837148
aF0.0046828797858125158
aF-0.0010653131034069499
aF-0.0042660902871627182
aF0.0083009073269467715
aF0.0067720431084672787
aF0.0001319255679082221
aF0.00079120224786152641
aF-0.023191479018237458
aasg15
S'KHC'
p346
sg17
(lp347
g19
(g21
S'\x00\x00\x00\x00\x00\x00\x00\x00'
tRp348
ag19
(g21
S'\xa3\x8eaR/\xf8s?'
tRp349
ag19
(g21
S'\xeb\xa2n\x15\xe0\xbd\x84?'
tRp350
ag19
(g21
S'/.\x90\xb0\xd7\xde\x8c?'
tRp351
ag19
(g21
S'\xb2*:\x0e\x80#\x95?'
tRp352
ag19
(g21
S'q\xacukP\xb6\x9b?'
tRp353
ag19
(g21
S"\xcc'\xaft\xd3\x89\x9f?"
tRp354
ag19
(g21
S'\xdfE\xd2\r\x0e\xa1\x98?'
tRp355
ag19
(g21
S'8Ht0\xf8\x88\x9a?'
tRp356
ag19
(g21
S'-\xc4x\xf1\x8c\x8b\x98?'
tRp357
asg32
(lp358
F0.013631472448815232
aF0.015689525151215893
aF0.027642335136871862
aF-0.0027125338139963274
aF0.0056663645889928511
aF0.011268875620213559
aF-0.0047916203430270502
aF0.0060463555267351622
aF-0.00011131886725250753
aF-0.022706957823105819
asg34
(lp359
g19
(g21
S'\x00\x00\x00\x00\x00\x00\x00\x00'
tRp360
ag19
(g21
S'\x9eDD\xae\xcb?s?'
tRp361
ag19
(g21
S'C\\\x9f\xbefs\x8a?'
tRp362
ag19
(g21
S'j\x7f\xbc\xcf\x81\xff\x8d?'
tRp363
ag19
(g21
S'u:-\xb2\x9cM\x90?'
tRp364
ag19
(g21
S'\xb2\xfa\xa6\xd0\xd4\x81\x89?'
tRp365
ag19
(g21
S'\x93@\xc47\xf1m\x91?'
tRp366
ag19
(g21
S'{W\xda\xa6?@\x91?'
tRp367
ag19
(g21
S'\xe4\xa3\xfb\x1fY\x98\x93?'
tRp368
ag19
(g21
S'mtE\x18\xc8(\x97?'
tRp369
asg46
g19
(g21
S'\xaa\xe4\x1b\xe8z1\xee?'
tRp370
sa(dp371
g3
(lp372
(lp373
F0.020784580484684689
aF0.014491442855098928
aF-0.0048820268973689251
aF-0.0038157354410828796
aF-0.0053807933355077137
aF0.012836979879643893
aF9.0548615702957478e-05
aF0.011405829533757315
aF0.012082690089966227
aF0.0078705251526260418
aag93
a(lp374
F0.0206467052735094
aF0.016793850974127326
aF0.0033783670756548155
aF0.0026188005334079481
aF-0.006343319890724031
aF-0.0026285911346998884
aF-0.0037650767148434657
aF0.0060469597395456688
aF0.01427494688230067
aF0.010000009002721818
aag87
a(lp375
F0.019179376783403312
aF0.0070812302679689101
aF0.00038529185128109933
aF-0.0034662141010377702
aF-0.0085990241545894023
aF0.0058473637477110966
aF-0.0036817847464566205
aF0.0093357870400509243
aF0.0059736293865147658
aF0.0058422849979011867
aa(lp376
F0.011296317768007045
aF0.016592554863272779
aF0.0048005525576741018
aF0.0063700952072700025
aF-0.0028100659632630991
aF0.0060612488799254927
aF-0.0039108263418615565
aF0.0055178716130170162
aF0.014246502758438508
aF0.009468276520863024
aa(lp377
F0.015850306613323522
aF0.026525274250600674
aF-0.0068400144737507263
aF0.01469248536325426
aF-0.0099548094765438012
aF0.011425961413780198
aF-0.0025606063128572089
aF0.014799086253797913
aF0.0083334139525060458
aF0.012691866985805903
aag55
a(lp378
F0.012835102099083482
aF0.007218501414324164
aF-0.0098742357257378364
aF0.0086858882142017233
aF-0.0070164189001096222
aF0.011401966483785542
aF0.0026992996996184882
aF0.0098178718355545896
aF0.0051748062233227003
aF0.0073323212847058979
aa(lp379
F0.012322493643880758
aF0.0083355197096542898
aF0.0007872398039112335
aF0.0028846189838159413
aF-0.0044451485399554782
aF0.0047275737906585132
aF-0.0040517917591347584
aF0.0078740346235712244
aF0.0027343689024750708
aF0.0053239473735965277
aasg15
S'NLSN'
p380
sg17
(lp381
g19
(g21
S'\x00\x00\x00\x00\x00\x00\x00\x00'
tRp382
ag19
(g21
S'\x99VtRe\xfd{?'
tRp383
ag19
(g21
S'\xe0\xb1\xde0\xd9Z\x80?'
tRp384
ag19
(g21
S'"\x04\x83\xcc\xd8\x83\x8e?'
tRp385
ag19
(g21
S'@\xf6\xfa8\x13\x99\x87?'
tRp386
ag19
(g21
S'i\x7f\xd3\n\x8e\x96\x89?'
tRp387
ag19
(g21
S'O\xedk>9\x80\x8a?'
tRp388
ag19
(g21
S'\xca\xedW`Q\xae\x81?'
tRp389
ag19
(g21
S'\n\x1d\xd4\xcc\xc13\x84?'
tRp390
ag19
(g21
S't<!-\xad\x8b\x80?'
tRp391
asg32
(lp392
F0.017141738773838438
aF0.017832647811731366
aF0.00057762804346613852
aF0.0030786991903270617
aF-0.0090159407439873909
aF0.010065814943863785
aF0.0013415101571483381
aF0.011866009569377989
aF0.0098354456182229762
aF0.0099269340686819734
asg34
(lp393
g19
(g21
S'\x00\x00\x00\x00\x00\x00\x00\x00'
tRp394
ag19
(g21
S'M\xa8,\x8b\x87\xf9b?'
tRp395
ag19
(g21
S'\xb6\xcbK\xb0\xe5ry?'
tRp396
ag19
(g21
S'\x00\xc0\x019\xe6\xa1\xff>'
tRp397
ag19
(g21
S'\xa5`\xe3\x1b\x88\xe1e?'
tRp398
ag19
(g21
S'\x0b\xef\xa4O\x94Ws\xbf'
tRp399
ag19
(g21
S'\xb0\xee\xe8\xdbFSn?'
tRp400
ag19
(g21
S'@/\r\xab\xae\x99\x8b?'
tRp401
ag19
(g21
S'r\xdau1Km\x91?'
tRp402
ag19
(g21
S'\xd6nLc\xab^\x8f?'
tRp403
asg46
g19
(g21
S'R\xaf2>\xd9U\xfe?'
tRp404
sa(dp405
g15
S'SPXLINE'
p406
sg34
(lp407
g19
(g21
S'\x00\x00\x00\x00\x00\x00\x00\x00'
tRp408
ag19
(g21
S'\x1bh\xf3+\xda3S?'
tRp409
ag19
(g21
S'\xab\x8d\x98z\xd8TP?'
tRp410
ag19
(g21
S'j\x03\xc8\xb9\xf5\x94f?'
tRp411
ag19
(g21
S'\x19\xda\x9a\xdex\x86m?'
tRp412
ag19
(g21
S'Bl.5\xb8\x8ck?'
tRp413
ag19
(g21
S'\x19\n\x92\xd9w+q?'
tRp414
ag19
(g21
S'"\xb8O\x83Xor?'
tRp415
ag19
(g21
S'\xd7#\xc3\xa7\xdfur?'
tRp416
ag19
(g21
S'\x14b\xab&\x9c\x8fr?'
tRp417
asa.