(lp1
(dp2
S'matches'
p3
(lp4
(lp5
F-0.0068026686205699743
aF0
aF0.01027518708631975
aF-0.0033910812130000219
aF-0.0034021912854198784
aF0.0068280413612226976
aF0.0033889460403438258
aF-0.013513829832057112
aF0.013698955181253551
aF-0.030404733947406198
aa(lp6
F-0.01438294199824394
aF-0.023613659269470341
aF0.0086956381212463831
aF0.00026945129534604285
aF0.0088876342652334673
aF0.004805129930119752
aF-0.0031880684705183891
aF0.00026648162831074664
aF0.020783457471267607
aF-0.022448476642965436
aa(lp7
F-0.01063829255665962
aF-0.0053763582056103754
aF0.0054054196780512339
aF-0.004032260236760633
aF0.0056303727829492235
aF0.001345883347050141
aF0.0026881823310954721
aF-0.010723868040150427
aF0.0094850803592291116
aF-0.014093938400536552
aa(lp8
F-0.0064163340686997881
aF-0.0063780833931276707
aF0.010511153265934877
aF0.00015878195714169818
aF0.0048428152178692611
aF0.0048984909536226098
aF-0.004638760835934317
aF-0.0015007425197589551
aF-0.0016613162989853596
aF-0.024167948276575597
aa(lp9
F-0.014883726302190628
aF-0.0047214370461830229
aF0.013282737337452142
aF-0.0018727809543808878
aF0.026266429257436285
aF0.022851930367460801
aF-0.0035746218492056269
aF-0.006278029818669731
aF0.010830329966480883
aF-0.020535608295584346
aa(lp10
F-0.029787327580345805
aF-0.013158539483258375
aF0.017777770658909901
aF-0.0087323095453176441
aF0.0088092345078979017
aF0.013100562674229214
aF0
aF-0.012931157238377535
aF0.017466717446888092
aF-0.017166868603542169
aa(lp11
F-0.020411196150535587
aF-0.001499025360902668
aF-0.0010508194584076963
aF-0.010970918427957646
aF0.009573087973293341
aF0.0031607100606707676
aF-0.0087021575738105168
aF-0.0092326868853431603
aF0.012374025133144189
aF-0.012071827463403687
aa(lp12
F-0.014991742689355613
aF-0.0042840724550261564
aF0.010643147382846004
aF-0.0048173934625633666
aF0.0081053893940066409
aF0.011725232458648146
aF0.010154512170060975
aF-0.011254357704294123
aF0.0039986859128082865
aF-0.014824602119599217
aa(lp13
F-0.0028489913988385858
aF-0.011428594857038453
aF0.0086705557848330388
aF-0.0028653876214501275
aF0.0086207252029744958
aF0.0028489913988384631
aF0
aF-0.0056817954114199536
aF0.014285656707278358
aF-0.0056337804297280887
aa(lp14
F-0.01887357699221098
aF-0.014961832061068762
aF0.010229386236825958
aF0.0092052776925436366
aF0.0018242626938279804
aF0.0021244309559939386
aF-0.0045427013930952652
aF-0.017645269242470289
aF0.0083617218953237274
aF-0.027334152334152349
aasS'symbol'
p15
S'DHI'
p16
sS'stDev'
p17
(lp18
cnumpy.core.multiarray
scalar
p19
(cnumpy
dtype
p20
(S'f8'
I0
I1
tRp21
(I3
S'<'
NNNI-1
I-1
I0
tbS'\x00\x00\x00\x00\x00\x00\x00\x00'
tRp22
ag19
(g21
S' \x95k\xffu\xa8\x82?'
tRp23
ag19
(g21
S'\x19\xc0\x07FV1\x89?'
tRp24
ag19
(g21
S'\xb9W\xaa\xdb\x1c\x7f\x97?'
tRp25
ag19
(g21
S'?t^\x14\x08\xd6\x9c?'
tRp26
ag19
(g21
S'\xc9\x95\r\xd8\xf1A\x9a?'
tRp27
ag19
(g21
S',\x0c\xf7l\xcd\xdb\x9f?'
tRp28
ag19
(g21
S'\xf9\xfb\xcbhx\xea\x9e?'
tRp29
ag19
(g21
S'\x96\xb6\x0b\x97\xe7\x19\xa0?'
tRp30
ag19
(g21
S'.]@P?\xd4\x9e?'
tRp31
asS'current'
p32
(lp33
F-0.018304400074001262
aF-0.0065423290807982279
aF0.011524464553030569
aF-0.0058593100865661227
aF0.011787786123517101
aF0.0058252427184465926
aF-0.0022522522522521473
aF-0.0070944534021283902
aF0.016239038121499249
aF-0.029721954946565828
asS'future'
p34
(lp35
g19
(g21
S'\x00\x00\x00\x00\x00\x00\x00\x00'
tRp36
ag19
(g21
S'\x03{\x88\x05<\xaep\xbf'
tRp37
ag19
(g21
S'\x8e\x96\x05\x07\xf1\\a?'
tRp38
ag19
(g21
S'\xe5\xcb\xe9}\xa8\xc6\x7f?'
tRp39
ag19
(g21
S'V\x01\xda\xe2$;\x8d?'
tRp40
ag19
(g21
S'\x8c&\x01\xb0b\x1c\x83?'
tRp41
ag19
(g21
S"N\xa3)\xd2B'\x8b?"
tRp42
ag19
(g21
S'\n\\x\xc9*!\x93?'
tRp43
ag19
(g21
S'\xe2\xf8\x8eN*|\x9d?'
tRp44
ag19
(g21
S'5\xe1?@\xa7L\xa0?'
tRp45
asS'sharpe'
p46
g19
(g21
S'\xe8-\x15\'"\xeb\xf0?'
tRp47
sa(dp48
g3
(lp49
(lp50
F-0.0079748269593437806
aF0.0046285635454118169
aF0.0084868130459962859
aF-0.0069728280986948174
aF0.0024213740654461051
aF0.006038618451850635
aF0.0096037829760920405
aF0.0083235258130593959
aF0.014386680379118449
aF-0.00023244806501802092
aa(lp51
F-0.0089254501169317695
aF-0.0034638142601286482
aF-0.002259334558234404
aF-0.0071415928111524425
aF0.0075438678006920163
aF0.0068324905984591079
aF0.0029580455766590511
aF0.0052046913513757228
aF0.007421479834274684
aF-0.00085659619166026757
aa(lp52
F-0.0087257704680854357
aF-0.010131221122263376
aF-0.0032078091050295643
aF-0.0069444402504457688
aF0.0054579604780742273
aF0.0057676097037293386
aF0.0055658334314400244
aF0.0070446268949069359
aF0.010492973414791756
aF-0.0072523188159777669
aa(lp53
F-0.0050749581169089375
aF-0.0030141736305720986
aF0.0020930443896028349
aF-0.0018565979599255058
aF0.011392749669537452
aF0.0036781338853018835
aF0.0045808981773303005
aF0.0011399388529794248
aF0.01002047068893475
aF-0.0090191313423944978
aa(lp54
F-0.016069765160175629
aF-0.0078141506954549304
aF0.0089426317768675698
aF-0.00070911253852414024
aF0.00028389519711130232
aF0.0043980637020459446
aF0.0023306812706742905
aF0.0054256256441035317
aF0.0015418092710710811
aF-0.0047582918392104923
aa(lp55
F-0.00088697703533927735
aF-0.00088791675552371649
aF0.0093306416839460775
aF-0.0079237030218217257
aF0.0073953482955683133
aF-0.00058729798636392681
aF0.0047010390257709051
aF0.0042404101604425299
aF0.0066977086885443501
aF-0.004483626931062675
aa(lp56
F-0.0120482068714079
aF0.012195136397550627
aF0.0072288625266948084
aF-0.0077750679727546165
aF0.012658181038016617
aF0.011309537576124207
aF0.0023543890901651112
aF0.0076335364536054074
aF0.0064103236355099137
aF-0.0034743550948159929
aa(lp57
F-0.011814033712545599
aF0.0077631714741581027
aF0.0014892871739457683
aF-0.0017947336494214927
aF0.012586031797266504
aF0.0050226015675378967
aF0.010196814431191794
aF0.012842329923104405
aF0.013518135936473096
aF-0.0022878158789598254
aa(lp58
F-0.0084792330554239442
aF0.00092939087841555144
aF0.0076152768495702091
aF-0.0071890573200591393
aF-0.00092820684112189923
aF-0.00018578059895388204
aF0.00037172523710120385
aF0.0053883929263508386
aF0.0079466356116962827
aF-0.0040336860813443573
aa(lp59
F-0.021002433233531185
aF-0.0019502995619617017
aF0.010991705214310905
aF-0.0021744181771389151
aF0.008310913048992315
aF0.0012120773611509598
aF0.0043583639212888357
aF-0.0012053929651929941
aF-0.0014482536128023527
aF-0.0058012341910311897
aasg15
S'TGT'
p60
sg17
(lp61
g19
(g21
S'\x00\x00\x00\x00\x00\x00\x00\x00'
tRp62
ag19
(g21
S'q\xdf\xf1\x041\x7f\x81?'
tRp63
ag19
(g21
S'O\x93\xae\xfcT"\x85?'
tRp64
ag19
(g21
S'\xb3\xc4\xeb\x15\x13\xcf\x8a?'
tRp65
ag19
(g21
S"\x91\x95d\xa9@'\x90?"
tRp66
ag19
(g21
S'\xcf0\xfd4\xd1\x89\x93?'
tRp67
ag19
(g21
S'6;\xaaT\x0f{\x91?'
tRp68
ag19
(g21
S'\xe0\xf0\xa3\xa9\xf6\xfd\x91?'
tRp69
ag19
(g21
S'(\x90\xf0d\xba!\x98?'
tRp70
ag19
(g21
S'\xe7\x17a\xfdX\x90\x97?'
tRp71
asg32
(lp72
F-0.014584532170795469
aF-0.0022425026497608883
aF0.007941249863387824
aF-0.0043108965799419788
aF0.0077634663587579063
aF0.0072592296296296287
aF0.004559567717592871
aF0.0081990918799812219
aF0.013360412236996726
aF-0.0061622385520527781
asg34
(lp73
g19
(g21
S'\x00\x00\x00\x00\x00\x00\x00\x00'
tRp74
ag19
(g21
S'I(\xcb\xca\xce\x16x?'
tRp75
ag19
(g21
S'\x7f\x9d\x03=\x04/p?'
tRp76
ag19
(g21
S'\xf2\xc3o\x84\xb8\x0c|?'
tRp77
ag19
(g21
S'\xb6\x10[}\x88>\x82?'
tRp78
ag19
(g21
S'\x0bFP\xf9\xb3\x01\x8a?'
tRp79
ag19
(g21
S'H#\xda|\x04>\x90?'
tRp80
ag19
(g21
S'\x1e;\xfe5\x8d\xc4\x94?'
tRp81
ag19
(g21
S'\x8d\xb7\x1c\xda\xbd\xc3\x9b?'
tRp82
ag19
(g21
S'0r=G\xe0}\x9d?'
tRp83
asg46
g19
(g21
S'&\x11p/i\x06\xf4?'
tRp84
sa(dp85
g3
(lp86
(lp87
F-0.017030565194114489
aF-0.023100840631228532
aF0.011823554360592991
aF0.0076404558161976555
aF-0.0044603212791100629
aF0.0044803048782956255
aF0.00044605640969699276
aF-0.0057958566656136868
aF0.013452969315697413
aF-0.013274389362913518
aa(lp88
F-0.0045877381227887653
aF-0.0092171880336358591
aF0.013954693536506992
aF-0.0045877381227887653
aF0
aF0.0023044412342966281
aF-0.0022991429943768418
aF0
aF0.0046088824685933845
aF-0.013762640111497802
aa(lp89
F-0.0015171120052308727
aF-0.019373233970811903
aF0.010071679600622746
aF0.0040268223184225307
aF0.0024828200791986023
aF0.0051437850938553676
aF0.001516326381986492
aF0.0041635361431992535
aF0.00037694782938289101
aF-0.0026375831478947938
aa(lp90
F0
aF-0.018018410455940263
aF0.0091745154124052968
aF0
aF0.0090911088937435953
aF0.0045041670078913498
aF0.0044848377617962574
aF0
aF0.0089279007258884231
aF-0.013274203748886444
aa(lp91
F-0.0062716310168596185
aF-0.0094646229522596086
aF0.012741924756689562
aF0.0062880690866702789
aF-0.015624660097021865
aF0.0095247040104307224
aF0
aF-0.0031467708658271202
aF0.0031567042909218246
aF-0.01572619262615808
aa(lp92
F-0.0060240541828606182
aF-0.024242454753693913
aF0.0062111365414024887
aF0
aF-0.0061727964597487039
aF0.0062111365414024887
aF0
aF0.012345798023047883
aF0.0060975177373215972
aF-0.012121328064037042
aa(lp93
F-0.010607209603513672
aF-0.017153719834062147
aF0.010635544125345795
aF-0.0024285436029620852
aF-0.0024343863738777488
aF0.0024403270728517042
aF-0.0086556345577360177
aF0.0090039955287046988
aF0.0075716760443478087
aF-0.011540416941518901
aa(lp94
F0
aF-0.020100263075921491
aF0
aF0
aF0
aF0.0051281427881123536
aF0
aF-0.0051019791107305605
aF0.0051281427881123536
aF-0.0051019791107305605
aa(lp95
F-0.0045661687432181778
aF-0.022935739678067293
aF0.014084378481591053
aF0
aF-0.0046295879581801916
aF0
aF0.0046511207307071154
aF0
aF0
aF-0.0046295879581801916
aa(lp96
F-0.0095694007890437874
aF-0.022544294879554026
aF-0.0032948571301070766
aF0.0187327867405006
aF0.0043266697549830258
aF0.0016155234401484669
aF0.00053767136929671016
aF-0.0018806940359795987
aF0.0096903377962933145
aF-0.015462492071832059
aasg15
S'HD'
p97
sg17
(lp98
g19
(g21
S'\x00\x00\x00\x00\x00\x00\x00\x00'
tRp99
ag19
(g21
S'\xbb#\xdd\xc0{\x14\x82?'
tRp100
ag19
(g21
S'|\x00\xc4\xc7\xdf:~?'
tRp101
ag19
(g21
S'9\xfci";\x13\x8d?'
tRp102
ag19
(g21
S'\xf2\x1a\xf3\x8d\r\xdb\x95?'
tRp103
ag19
(g21
S'\xc6\x16\xf7\xa2\x85\x9e\x96?'
tRp104
ag19
(g21
S'\x87T\xd71\n\xe5\x91?'
tRp105
ag19
(g21
S'V\x1ef\x9aU8\x94?'
tRp106
ag19
(g21
S'\x11\x0e\xd0"[\xe0\x90?'
tRp107
ag19
(g21
S'}~\xdc\x8dw\xe6\x9b?'
tRp108
asg32
(lp109
F-0.0077621670765790577
aF-0.020261315493056108
aF0.010300231719901527
aF0.0065597250182543127
aF-0.0017274026246277576
aF0.003775397229631832
aF0.00094025228944715638
aF-0.0010959762188191091
aF0.0054074844107756988
aF-0.014732177902605458
asg34
(lp110
g19
(g21
S'\x00\x00\x00\x00\x00\x00\x00\x00'
tRp111
ag19
(g21
S'\xd0b\xb1\xc6*\xd6i?'
tRp112
ag19
(g21
S'\xad\xa2\x1f<\x17j{?'
tRp113
ag19
(g21
S'\xa6\xd5\xccM)\x00\x84?'
tRp114
ag19
(g21
S'\x87s\xb4\t\xca~\x88?'
tRp115
ag19
(g21
S'\xaa?\x10X?n\x88?'
tRp116
ag19
(g21
S'\x86b\xac\x15\x05Q\x8d?'
tRp117
ag19
(g21
S'\xed\xfeA\xc6^}\x95?'
tRp118
ag19
(g21
S'\x88\x8d\x10\x0b*\xfc\x96?'
tRp119
ag19
(g21
S'\x1d\xaed\xff\x8a\xd9\x9c?'
tRp120
asg46
g19
(g21
S'\xa17\x80\xa7e\x8b\xf0?'
tRp121
sa(dp122
g3
(lp123
(lp124
F-0.01165404771803564
aF-0.0026022591144858878
aF-0.007745657067291893
aF0.016762544923097027
aF-0.010586693214425669
aF-0.014375588202453406
aF0.0060495920678625232
aF-0.0095552192836208978
aF-0.0080672092184026298
aF0.019032481848620574
aa(lp125
F-0.012048216482247201
aF-0.0060975519303398664
aF-0.0040899876602293814
aF0.018480508199738212
aF0.0020161119951790621
aF-0.02816898631005102
aF0.0041407517102781061
aF-0.014432954053402969
aF0.0020920325036980045
aF0.018789159500525957
aa(lp126
F-0.0089888653950982254
aF-0.0014910320549768629
aF-0.0036088444779946525
aF0.013113493020612476
aF0.0027120563206878578
aF-0.0008606584772648787
aF0.0089825375784085056
aF0.0047560213565262591
aF-0.0014565824754182858
aF0.011912126697230784
aa(lp127
F-0.0079270187249298706
aF-0.0053267750408713095
aF-0.0080331492247397544
aF0.010552128670500753
aF-0.010684762870413877
aF0.0056455497970059106
aF0.0080546047896934547
aF-0.010653717982864951
aF-0.0017131573585155559
aF0.012993356724631859
aa(lp128
F0.0037295389328536933
aF-0.0037156811553228459
aF0.0055957562016615081
aF0.016699612852323697
aF-0.0091267492345991214
aF-0.0018393045228027143
aF0.0055338084915682907
aF-0.014676085257134005
aF0.0037211412848703364
aF0.022264230808546795
aa(lp129
F-0.015860691268620036
aF0.0071334294777808671
aF-0.0013116087493265554
aF0.011295035395292323
aF0.0023376051167890992
aF-0.0077739837056864458
aF0.0083572421496671042
aF-0.0098419807320727689
aF0.0015694497112445853
aF0.0062679016300370522
aa(lp130
F-0.015999973856121619
aF0.0081300272988182182
aF-0.0080644629945224415
aF0.012195081449723515
aF0
aF-0.0040160777555677271
aF-0.0040321913223879914
aF-0.01214578916206633
aF0
aF0.024590164603827586
aa(lp131
F-0.0080257110520121685
aF-0.0080905517201059415
aF-0.0081566359094725847
aF0
aF-0.0032895043045635028
aF0.0016502275961297885
aF0.003294829301113595
aF-0.011494219425011174
aF0.0016610975456078424
aF0.016583807986420847
aa(lp132
F-0.0081719087769996958
aF-0.0021186377125225228
aF0.0044822346641589647
aF0.012447137075483236
aF0.002087676345783536
aF0.0076388410011093959
aF0.0073512465284967998
aF-0.0061572630641994015
aF-0.0066544492050893671
aF0.024486922929212264
aa(lp133
F0.0053411356734022163
aF-0.0028978357938581659
aF-0.0079922874831429361
aF0.01782225356155899
aF0.0031182678518976185
aF-0.0050214769854906452
aF0.0033645463155505847
aF-0.015568884053692944
aF-0.00048655449989951966
aF0.0077896869960181062
aasg15
S'HRL'
p134
sg17
(lp135
g19
(g21
S'\x00\x00\x00\x00\x00\x00\x00\x00'
tRp136
ag19
(g21
S'\xf0@`{\x83\xa1~?'
tRp137
ag19
(g21
S'\x9e\xae\x96\xab\x84\x1d\x8a?'
tRp138
ag19
(g21
S'\x1a\x8f\xb4\x00\xa1j\x87?'
tRp139
ag19
(g21
S'2>\x8f\r\x16\xc3\x88?'
tRp140
ag19
(g21
S'\x08w\x97\xf8\x8a\x95\x93?'
tRp141
ag19
(g21
S'W\xdduj\x04\xc9\x93?'
tRp142
ag19
(g21
S'\xf4\x93,"u\xb2\x89?'
tRp143
ag19
(g21
S'\xb3"\xe8\xd9F\xc7\x91?'
tRp144
ag19
(g21
S'\xb3/\x8c\xe8\xa3\x1c\x9b?'
tRp145
asg32
(lp146
F-0.0092059556505153656
aF-0.0026132695300020445
aF-0.0049489959213389082
aF0.022820333528379276
aF-0.0022882723766669256
aF-0.0068807910871331954
aF0.0080831122425839719
aF-0.01002285280772351
aF0.00057853630315311334
aF0.021682567215958369
asg34
(lp147
g19
(g21
S'\x00\x00\x00\x00\x00\x00\x00\x00'
tRp148
ag19
(g21
S'B\xa0Lx\xa5U^\xbf'
tRp149
ag19
(g21
S'\xdaj\xbf[4[]?'
tRp150
ag19
(g21
S'0v\x19\xc3\xdc\xbbM?'
tRp151
ag19
(g21
S'\xcd\xa5;\xc7\x1b(m?'
tRp152
ag19
(g21
S'u=\xfdg\xac\x0e|?'
tRp153
ag19
(g21
S'u\x03\x0f\x14\x0e\xe4\x8c?'
tRp154
ag19
(g21
S':k\xe9\x14\x80\x96\x90?'
tRp155
ag19
(g21
S'\xb2\x10\xee\x00\xba\xac\x98?'
tRp156
ag19
(g21
S'\x8b$\x14\xef#o\x9b?'
tRp157
asg46
g19
(g21
S'@\xb4\xf9\xec\xaf0\xf0?'
tRp158
sa(dp159
g3
(lp160
(lp161
F-0.008089145711319988
aF-0.0050969681356440684
aF-0.0040982981879345015
aF-0.0051437457610130754
aF0.0051703406789634877
aF-0.0010285824065599642
aF-0.0051495188816586763
aF0.0031056323051913775
aF0.011352063118417114
aF-0.018367416009672122
aa(lp162
F-0.00094237380264628346
aF-0.0002694675608838305
aF-0.0051220510619627629
aF-0.0040888863323735349
aF0.0078007310554813886
aF0.003666545320349779
aF-0.0010824200159662543
aF-0.0075850613911579868
aF-0.0064145460896528209
aF-0.03351652595371258
aa(lp163
F-0.0011185553531933589
aF-0.01455770401913137
aF-0.015227260934016379
aF-0.0062312044886715543
aF0.00023217581539673314
aF-0.00069650472046078947
aF-0.0039498659310715127
aF-0.0027991560511699972
aF-0.0021052249911961002
aF-0.038912316765877926
aa(lp164
F0.00050632911392412981
aF-0.0040485829959515099
aF-0.003556859756097523
aF0.0025496684064421865
aF0.0020346388606307312
aF0.0035532485505964826
aF-0.0050581689428425836
aF0.0030503304524656183
aF0.00050684237202220023
aF-0.024316109422492245
aa(lp165
F0.00068919838667826517
aF-0.010674967970994218
aF0.00017406582839380079
aF0.0017436716833334957
aF0.0026109188925316591
aF0.0041666920892285391
aF-0.0065698699043165712
aF0.0010442290210399597
aF0.012169700118528557
aF-0.0089316394233297236
aa(lp166
F-0.0014672706609886543
aF-0.0075925128939233789
aF-0.0061697842281691305
aF-0.0039731844312062489
aF-0.0024931924819341718
aF0.0049987734946604885
aF-0.00099479684674099529
aF-0.0057256478949333587
aF0.019278902799951557
aF-0.011299399424463494
aa(lp167
F0.004847161350731783
aF-0.0053803362320266751
aF0.0044767414444655792
aF0.00065766565800630091
aF0.0054460459698631794
aF0.0091519766766579545
aF-0.0046270340559386959
aF-0.001673500752502703
aF0.0087539692241930499
aF-0.014401750344782789
aa(lp168
F0.0091740186439254225
aF-0.018181978911821679
aF0
aF0
aF0.0092597177890725683
aF0
aF-0.0091747620814167652
aF-0.0092589674675598622
aF0.0093454971213748472
aF-0.037035869870239449
aa(lp169
F-0.010456282234818221
aF-0.012487965326894166
aF0.00064854662589009903
aF-0.010693462363599127
aF0.004258071957168077
aF0.0026092649601299847
aF-0.0065061482323909596
aF0
aF0.0117877901722435
aF-0.01488670554000987
aa(lp170
F0
aF-0.011718311803739761
aF-0.007905701601912455
aF-0.0079680478391449278
aF0
aF0.0080320475784966781
aF-0.0079680478391449278
aF0.0080320475784966781
aF0.0079686997644050715
aF-0.01581075643249134
aasg15
S'UNP'
p171
sg17
(lp172
g19
(g21
S'\x00\x00\x00\x00\x00\x00\x00\x00'
tRp173
ag19
(g21
S'\xc5\x04\xab|\x18\x03\x7f?'
tRp174
ag19
(g21
S'aC\x9bHRq\x8b?'
tRp175
ag19
(g21
S']\xeb\x85\xab\xe8\xf8\x8f?'
tRp176
ag19
(g21
S'\xc0\x83\xdb)\x86V\x8d?'
tRp177
ag19
(g21
S'\x06\x10\xe9p\x89\x86\x93?'
tRp178
ag19
(g21
S'\xd8Q\xbb\x03\x04\xe6\x92?'
tRp179
ag19
(g21
S'r#\xafQ\xe8\x0b\x93?'
tRp180
ag19
(g21
S'\x80F\t\x03z\n\x95?'
tRp181
ag19
(g21
S'\x8f\x18\x1e\x06\x0cU\x99?'
tRp182
asg32
(lp183
F-0.0007884658795728009
aF-0.0082290159872507717
aF-0.0050011591838658234
aF-0.0051405642547342947
aF0.0056264326846449039
aF0.005823178674967444
aF-0.0049948237027959298
aF-0.0018254876936568776
aF0.012001406149306391
aF-0.03715835738470348
asg34
(lp184
g19
(g21
S'\x00\x00\x00\x00\x00\x00\x00\x00'
tRp185
ag19
(g21
S'\x82\x87ngs\xd9U?'
tRp186
ag19
(g21
S'_\xbaE\x8f\xe8\x03t?'
tRp187
ag19
(g21
S'\xce\xfcO\x8c\x19\x98e\xbf'
tRp188
ag19
(g21
S'\xd6*\xe09\xefh[?'
tRp189
ag19
(g21
S'\xda\xd2\xc8\x05\x81\x9a\x7f?'
tRp190
ag19
(g21
S'\xfdA\x8a\x9f\x7fEx?'
tRp191
ag19
(g21
S'\xf2\xa0\xab\x94\xe8\xc7\x8d?'
tRp192
ag19
(g21
S'\xcf\x1e\xe9\xf7\xadX\x95?'
tRp193
ag19
(g21
S'\x96\x05g\x81ft\x99?'
tRp194
asg46
g19
(g21
S'\x9d\xcc\xa4\x94\xcd\x13\xf0?'
tRp195
sa.