(lp1
(dp2
S'matches'
p3
(lp4
(lp5
F-0.012058860269851113
aF0.011820608715903756
aF-0.004952368253968293
aF0.012761612905033016
aF-0.001890146145537481
aF0.0042924378776978342
aF-0.0076681455310566972
aF0.0046870533395728343
aF0.0069348507611865506
aF0.00037563235192053388
aa(lp6
F-0.0016851573189816001
aF0.0064917989797602538
aF-0.003483002277552934
aF0.023818814095915245
aF0.0042988969143611458
aF0.0067984214957971306
aF-0.00037510526908758054
aF0.0035025736744353827
aF0.0066068963761734675
aF-0.00037160179113112935
aa(lp7
F-0.0070787295261991647
aF0.0069553471380749046
aF-0.0037990157140389631
aF0.023400971111127881
aF-0.016598915708012894
aF0.0099896312437198088
aF-0.011596180279607434
aF-0.0010351449453959228
aF0.0058721932341210675
aF-0.001545329617261969
aa(lp8
F-0.020649123043424079
aF0.0060238729148430281
aF-0.005987803149630557
aF0.018072158324689929
aF0
aF0.011834412041748801
aF-0.0087717356958245622
aF0.002949214172609647
aF-0.0029405418848078191
aF0.011798706224501231
aa(lp9
F-0.0057257671015794147
aF0.0097898305489336566
aF-0.0059879983324382042
aF0.014916819620028294
aF0.0014131970169881554
aF0.020886214461680361
aF-0.017141257144105405
aF0.0047820389718290909
aF0.010638223285978007
aF0.0052632409914598515
aa(lp10
F-0.016950981724901171
aF0.0068983644489858378
aF0
aF0.020548067276049721
aF0.0033540121278612728
aF0.013378368140092566
aF0.006600369976348601
aF0
aF0.0065590981265167799
aF0.0097720421873021598
aa(lp11
F-0.0032509771468316137
aF0.0061969922969945229
aF-0.0035656527913341643
aF0.024723494900028901
aF-0.0050793611719781376
aF0.011167860392000286
aF-0.00063113477232387726
aF0.0037890975416398995
aF0.0084932449898677126
aF0.0096693177966482077
aa(lp12
F-0.010657148084949716
aF0.01308021660981966
aF-0.001012682232662267
aF0.00076034924007817458
aF-0.00075977154835874699
aF0.014698479940059423
aF-0.013736229013376077
aF0.0040516462969557923
aF0.010340467994248587
aF-0.00099852587773372023
aa(lp13
F-0.0052622828565040691
aF0.012280398383047971
aF-0.0014929851270006026
aF0.024859888017893222
aF0.0041946824725022612
aF0.0050852889501043063
aF-0.0090349984132377485
aF0.0076586653519556654
aF-0.0018095791150815467
aF0.0014502199436398368
aa(lp14
F0.0049099777354281735
aF0.0097719752897525072
aF-0.0016129013164825296
aF0.017770642539654585
aF-0.0063491985415094062
aF0.0095846526750495223
aF-0.0079113827071142628
aF0.0015948943610908841
aF0.0047770641705643345
aF-0.0031695682162806971
aasS'symbol'
p15
S'TROW'
p16
sS'stDev'
p17
(lp18
cnumpy.core.multiarray
scalar
p19
(cnumpy
dtype
p20
(S'f8'
I0
I1
tRp21
(I3
S'<'
NNNI-1
I-1
I0
tbS'\x00\x00\x00\x00\x00\x00\x00\x00'
tRp22
ag19
(g21
S'20w\xfb\x9f\xce\x81?'
tRp23
ag19
(g21
S'\xa3\x16f\x8as\xb6\x92?'
tRp24
ag19
(g21
S'8%W\xbb\xf6c\x97?'
tRp25
ag19
(g21
S'\xae,\xc1\tR\xfd\x9b?'
tRp26
ag19
(g21
S'H#\x81\x91\xcd?\xa0?'
tRp27
ag19
(g21
S'\x01\xfcH\xe9\\\x03\xa4?'
tRp28
ag19
(g21
S'i\xaa\xb4\xfc!\x92\xa3?'
tRp29
ag19
(g21
S'z_\x1f\n1 \xa3?'
tRp30
ag19
(g21
S'\xff7\x85$}h\x9d?'
tRp31
asS'current'
p32
(lp33
F-0.013685347729352929
aF0.0085494185998435061
aF-0.0051417871754000019
aF0.02304794094415092
aF0.0013653468423087528
aF0.015407759225948104
aF-0.0077883979080380743
aF0.0032480444342677544
aF0.0070147716315164237
aF-0.0008038311907881976
asS'future'
p34
(lp35
g19
(g21
S'\x00\x00\x00\x00\x00\x00\x00\x00'
tRp36
ag19
(g21
S';c\xf8V\x90zm?'
tRp37
ag19
(g21
S'/\xc9B#\x00A\x84?'
tRp38
ag19
(g21
S'\xbaiQHp\r\x8c?'
tRp39
ag19
(g21
S'\xd2\x93\xfc\xd2R\x8e\x8d?'
tRp40
ag19
(g21
S'\xe0?\x8dl\xceo\x8c?'
tRp41
ag19
(g21
S'\x15P\xa9\xd4*-\x9c?'
tRp42
ag19
(g21
S'\x02\xd3\x98\xc3<3\x97?'
tRp43
ag19
(g21
S"\x14@\x1e\x86x'\x97?"
tRp44
ag19
(g21
S'g@\x0e\xe4\xddo\xa2?'
tRp45
asS'sharpe'
p46
g19
(g21
S'Y\xcc\x9c5\xd8\x0f\xf4?'
tRp47
sa(dp48
g3
(lp49
(lp50
F0.0087433810689280331
aF-0.005845609644001556
aF-0.010137863113297434
aF0.0088078551068306032
aF-0.0097461813521051467
aF-0.011482497708151294
aF0.0016594480310077261
aF-0.0010353882411521075
aF0.00041452842129788926
aF0.00062167525771745363
aa(lp51
F0.0076628552460442766
aF-0.0076045824316638257
aF-0.0038314027696052578
aF-0.0012820296595788074
aF-0.0064185267335774331
aF-0.0077519079695256366
aF0.0052083467945892746
aF-0.0025906802361905781
aF0.0012986793735362805
aF0
aa(lp52
F0.0066225197269220732
aF-0.0032894752487350669
aF0.0033003316078717791
aF0.0065789504974699221
aF-0.0098039262010474505
aF-0.0099009948236151255
aF0.010000004819569813
aF0
aF0
aF0.0033003316078717791
aa(lp53
F0.015297876091460001
aF-0.0040642000076370911
aF-0.003284580129046259
aF0.0073896371189002092
aF-0.0018833759603394222
aF-0.0080445452657249405
aF0.0048058022379004889
aF0.0013949736641920216
aF0.00059699095907845493
aF0.0067621388026689998
aa(lp54
F0.012647603136307362
aF-0.0044317840264456428
aF-0.0034401693161018308
aF0.0030459317801713611
aF-0.0010122495151468007
aF-0.0068895679669794983
aF0.0069373634036606546
aF-0.0002026284967268243
aF-0.0018242251888167095
aF0
aa(lp55
F0.011207633658215642
aF-0.0038452472204709097
aF-0.0015894602753947892
aF0.0093245341190636051
aF0.0036052325461474496
aF-0.015491743961119348
aF0.0038768887373253958
aF-0.00045435164392366138
aF0.001363674519530538
aF0.0077167483420917254
aa(lp56
F0.0088978360538570882
aF-0.0018459341891824861
aF-0.0081506986671730317
aF0.0070437432123266275
aF0.0028115168230618045
aF-0.010257113082661575
aF0.0031090020558461016
aF0.0020662832136354773
aF0.00061856884316092541
aF-0.00089300792181051813
aa(lp57
F0.0068493434998591956
aF0
aF0
aF0.009070313353756923
aF-0.0022472375466426951
aF-0.006756728709598361
aF0
aF-0.0045351284389239669
aF-0.0022779514979921057
aF0
aa(lp58
F0.013513573133446028
aF-0.0033333478434991967
aF-0.0033423124084849317
aF0.0033535209230782497
aF-0.0033423124084849317
aF-0.0033568076146070066
aF0
aF-0.0067329296873281713
aF0
aF-0.0033909447167554795
aa(lp59
F0.0057817877996524337
aF0.0038323353293412358
aF-0.0069196134574086533
aF0.0045651610899846437
aF-0.0040660606537655103
aF-0.011527353783077815
aF0.003158430515063169
aF-0.00096878176389476542
aF-0.00072724848484840134
aF-0.0012130761471840768
aasg15
S'MKC'
p60
sg17
(lp61
g19
(g21
S'\x00\x00\x00\x00\x00\x00\x00\x00'
tRp62
ag19
(g21
S'\xc1^\xd5K\xc3\xf2\x82?'
tRp63
ag19
(g21
S'\xa2\x10\xdb]\xb6\xec\x85?'
tRp64
ag19
(g21
S'R0+\xff\x08\xc2\x8f?'
tRp65
ag19
(g21
S'\x18s\xec\\o\x1d\x91?'
tRp66
ag19
(g21
S"'<\xber7O\x97?"
tRp67
ag19
(g21
S'\xac\xdb=`B\x93\x95?'
tRp68
ag19
(g21
S'\xf7\x18\x10Q?S\x97?'
tRp69
ag19
(g21
S'X.~\r~3\x97?'
tRp70
ag19
(g21
S'\x1d\xdb\xf0\x17&\xc1\xa1?'
tRp71
asg32
(lp72
F0.011334620749660563
aF-0.0037358873404564398
aF-0.0031061182813651713
aF0.0099140304064193555
aF-0.0095362472843702004
aF-0.011138380004939085
aF0.0047728139600455525
aF-0.0038001234315006298
aF0.0015258058218024116
aF-0.0012378404467103584
asg34
(lp73
g19
(g21
S'\x00\x00\x00\x00\x00\x00\x00\x00'
tRp74
ag19
(g21
S'K\xd2\xac\x9f\xa6\nR\xbf'
tRp75
ag19
(g21
S';\x88\xd3\x8dM\\4?'
tRp76
ag19
(g21
S"\xa6'j\xb6\xf8\x1cn?"
tRp77
ag19
(g21
S'\xb8\xd6j\x0c3\x88p?'
tRp78
ag19
(g21
S'=^\x99\xdez\x1c\x86?'
tRp79
ag19
(g21
S"\xec\xb0'\x86\xf4\xb6\x84?"
tRp80
ag19
(g21
S'\x954\xfd\xbe\x11\xf0\x95?'
tRp81
ag19
(g21
S'\x90\xa7(\xed\xd0\xb5\x97?'
tRp82
ag19
(g21
S'C5\x08\xb5Ex\xa0?'
tRp83
asg46
g19
(g21
S'Mh\x1e\xe8>\xaf\xed?'
tRp84
sa(dp85
g3
(lp86
(lp87
F-0.0049180879487812964
aF0.0080874656558279807
aF0.0043084722691537477
aF0.019230777772063095
aF0.0040638771875726688
aF0.015322287599530499
aF0.002579170932774513
aF-0.009718487991137224
aF0.008659246098604861
aF0.0011447055242405121
aa(lp88
F-0.0095687775975755434
aF0.0061593544930764561
aF-0.00029621336823318979
aF0.015382704463275314
aF0.0053741539131479726
aF0.011101934090887307
aF0.010453820613502829
aF-0.0015861821398490993
aF0.0035804762532365268
aF-0.0016302893802280229
aa(lp89
F0.0066364338380418926
aF0.0087119021932623129
aF-0.0032677932629732506
aF0.014285475158524514
aF0.00069289977626615408
aF0.0092292857501504334
aF0.0045726534708352574
aF-0.0031862150901189931
aF0.00091314755503770525
aF0.0045619933723059138
aa(lp90
F-0.0033456926383515933
aF0.0098940143014540054
aF0.015045494977486572
aF0.0086177224626433711
aF-0.00034178723158657774
aF0.012820528870818804
aF-0.001856550862093512
aF-0.0040581393406992116
aF0.0047538026672786712
aF-0.0021967041321219035
aa(lp91
F-0.0071721966880242353
aF0.0074819600316456385
aF0.0061460121498421172
aF0.0015270343951593181
aF0.0010165387106678275
aF0.013455179843985214
aF0.0012525802419379685
aF-0.0042532493235504232
aF0.00075383426718659803
aF0.0020085006424986666
aa(lp92
F0.0019239515301271097
aF0.011041750476496496
aF0.012820524336383829
aF0.0089076750580157887
aF-0.0023234722890920312
aF0.011178373405658266
aF0.0011516188151182692
aF-0.0066712980481480888
aF0.0030106807519581936
aF-0.0023089874576346218
aa(lp93
F-0.001577243377319843
aF0.0094786666687198002
aF0.0046948776875639087
aF0.015576225982800477
aF-0.0061348798757292098
aF0.0030864229979673517
aF0.0061537477930806665
aF0.0030581956232349863
aF-0.0030488715775208067
aF0.0061162950898992841
aa(lp94
F0
aF0.0036765014728242259
aF0.0073259865862703851
aF0.0072727068335616887
aF-0.0072201964614170833
aF0.014545413667123377
aF0.0071685192166177063
aF-0.010676166229595935
aF0.0035970718663354958
aF0.0035842596083089243
aa(lp95
F0.0020500210292424413
aF0.0042120283505381762
aF0.0092875727082963426
aF0.019769662553198068
aF-0.0077429234967008997
aF0.012320998447301222
aF0.0081720415973355609
aF-0.0074158840025735084
aF0.0048071410909964422
aF0.0048993658164919471
aa(lp96
F-0.00096345899472766953
aF0.0098889549186615966
aF0.003343535309525809
aF0.0054748330686084741
aF-0.0033143591022027257
aF0.0061760083790237917
aF0.0018883487183755008
aF0.00094256009261409689
aF-0.00070600666062919969
aF0.0025913463355310426
aasg15
S'IFF'
p97
sg17
(lp98
g19
(g21
S'\x00\x00\x00\x00\x00\x00\x00\x00'
tRp99
ag19
(g21
S'O\xedm4l3\x82?'
tRp100
ag19
(g21
S'\xfbS\x8e\xbc4\xce\x86?'
tRp101
ag19
(g21
S'\xd3uj\xde\xd3\xa4\x89?'
tRp102
ag19
(g21
S'\xcc\x0c\xa0oGs\x8c?'
tRp103
ag19
(g21
S'v,\x8f2\x1a\xbe\x90?'
tRp104
ag19
(g21
S'\x165"\xda\x91\x13\x97?'
tRp105
ag19
(g21
S'\x96\xea0\xb3\xd1\xf9\x94?'
tRp106
ag19
(g21
S'\x1efV\x94?S\x92?'
tRp107
ag19
(g21
S'\xd7>\xdfs\xf1j\x91?'
tRp108
asg32
(lp109
F-0.0026977465896829591
aF0.01034287516361081
aF0.0044098354895635468
aF0.015523292461231849
aF-0.0011579865757583494
aF0.014067026817629082
aF0.0079268904251575574
aF-0.0037054218199704127
aF0.0026565920303605888
aF0.00090836483383648558
asg34
(lp110
g19
(g21
S'\x00\x00\x00\x00\x00\x00\x00\x00'
tRp111
ag19
(g21
S'=`[\x83\xeb\nX?'
tRp112
ag19
(g21
S'\n\xd7\x8e\xa1\x0eKp?'
tRp113
ag19
(g21
S'\x18rA\xda\xb8\x98x?'
tRp114
ag19
(g21
S'BXn\xf5\xf3\xf8\x80?'
tRp115
ag19
(g21
S'\x06\xd7\xc6\xef2\xee\x90?'
tRp116
ag19
(g21
S'\x9a\x97\x96\x06\xa1\x08\x92?'
tRp117
ag19
(g21
S'\x1e\x122r\xdf_\x97?'
tRp118
ag19
(g21
S'\xfe? \\B\x9c\x95?'
tRp119
ag19
(g21
S'\xc2\xe3\xd7\x15\x9b.\xa0?'
tRp120
asg46
g19
(g21
S'\xeb\x9d>\xa8\xd2\xba\xfd?'
tRp121
sa(dp122
g3
(lp123
(lp124
F-0.047945140087572266
aF0.0071943314216096734
aF0
aF0.03214273600289172
aF0.0034602494767279647
aF0.020689578762379243
aF-0.0067566790986880653
aF0.0068026423702066902
aF0.01013525809374397
aF0.003344363744397815
aa(lp125
F-0.029197494973761305
aF-0.0055420867435975307
aF-0.0019029457542920022
aF0.026692075495114299
aF0.014060194017400057
aF0.025376101825819883
aF-0.0038270665159571972
aF0.0084518403302752416
aF-0.00076187562422950898
aF0.0062269345075139674
aa(lp126
F-0.020576177708634121
aF0.0066027090369761366
aF-0.0017889828041332495
aF0.019115863664398474
aF0.0070340483888574456
aF0.027939485047973615
aF0.011891306433792366
aF0.015668638217043798
aF0.0011019551872312626
aF-0.0049531985075495976
aa(lp127
F-0.0097644748627221112
aF-0.00097338842268317649
aF-0.009937617724820276
aF0.035819713711924391
aF0.0047501540758140533
aF0.025907679959503591
aF0.0046083062638108034
aF-0.0023853421897264272
aF0.0023910456517972213
aF-0.0033027676021093271
aag10
ag6
a(lp128
F-0.026548551903166778
aF0.0090908666460531012
aF0.0030029891084928863
aF0.0029939981646135714
aF0.0059701217955290733
aF0.020771565869096703
aF-0.011627997697546461
aF0.0088234894269424574
aF0.023323800196227071
aF0
aa(lp129
F-0.017347105635634148
aF0.0095535979294876956
aF0.00082270858575088672
aF0.0070914539084614399
aF-0.0013265998258232196
aF0.021663791472957321
aF0.0092016140986845105
aF0.0050544615567755706
aF0.0019722765113802084
aF-0.0024602340741951435
aa(lp130
F-0.019783438554760481
aF0.0072231921294685303
aF0.0012656057614837091
aF0.025489471721107493
aF0.0067791595174027343
aF-0.0016325490213886509
aF0.0063356933600751441
aF0.0006094568842540468
aF-0.0010147499878847236
aF-0.0048764062151802475
aa(lp131
F-0.020669885366456735
aF0.00058633979009348961
aF0.0087890666401213829
aF0.023814124363953738
aF0.0011345976256853601
aF0.01284474219682539
aF-0.0039164345013329507
aF0.014229510209584441
aF-0.0046151080311537772
aF0.00037094207051618119
aasg15
S'CAT'
p132
sg17
(lp133
g19
(g21
S'\x00\x00\x00\x00\x00\x00\x00\x00'
tRp134
ag19
(g21
S'\xe4\x0e\x10x\xb5m\x86?'
tRp135
ag19
(g21
S't\xcdRGB\xfb\x92?'
tRp136
ag19
(g21
S'v\xfe\xd6MP\xe3\x90?'
tRp137
ag19
(g21
S'Ce7}\x1dK\x90?'
tRp138
ag19
(g21
S'\xf9\x91\x7fv\xf4~\x88?'
tRp139
ag19
(g21
S'+\x13\x05A\x8b\x87\x98?'
tRp140
ag19
(g21
S'(t\xa0\t\x99\xb3\x99?'
tRp141
ag19
(g21
S'TGj\x86\xd1O\x9b?'
tRp142
ag19
(g21
S'\\\xb7\x01\x95b8\x99?'
tRp143
asg32
(lp144
F-0.027076507687186793
aF0.0060500771681397097
aF0.0029400125163238366
aF0.030912714093229651
aF0.005557707549411252
aF0.025706940306905002
aF-0.001378453234046871
aF0.0046429326757722175
aF0.0079939993016554817
aF-0.0013761666974666221
asg34
(lp145
g19
(g21
S'\x00\x00\x00\x00\x00\x00\x00\x00'
tRp146
ag19
(g21
S'\x08\xd9\x85\x0cr\xa1s\xbf'
tRp147
ag19
(g21
S"M\xa6~\xd1\xf9'6?"
tRp148
ag19
(g21
S':\x10XD\xc7\xe9W?'
tRp149
ag19
(g21
S'\xa3tj\xfa\x87\xb6|?'
tRp150
ag19
(g21
S'\x93\xf9ZY\x00z\x89?'
tRp151
ag19
(g21
S'(\x8e\xfd\xfbM|\x99?'
tRp152
ag19
(g21
S'\xdd\\\xfe\xa7\xc3\x9e\x9c?'
tRp153
ag19
(g21
S'\xd6\xfb\xc6%K\xa8\xa0?'
tRp154
ag19
(g21
S'x\\-\xc2|\x95\x9e?'
tRp155
asg46
g19
(g21
S'\x0c"\xda]\x1cg\xf3?'
tRp156
sa(dp157
g3
(lp158
(lp159
F0.017148449286824182
aF0.0055395194918644065
aF-0.014690589912116378
aF-0.0021878657970405865
aF0.0088517451234199438
aF-0.020606982077878176
aF0.0092874599238898566
aF-0.0056189130161978188
aF0.003848998337215929
aF-0.0006526486753578143
aa(lp160
F0.016717300777711275
aF0.0014947759799144454
aF-0.011940305751162046
aF0.002779496649573463
aF-0.0057845819588575537
aF-0.01139396736894913
aF-0.0034330333134579638
aF-0.011810971120587948
aF0.00099602551296250471
aF-0.004975172166403005
aa(lp161
F0.016899378064315632
aF0
aF-0.0021676718917090694
aF0.0072410893906501616
aF0.007908081999204836
aF-0.013552152178145154
aF0.010122988629719961
aF-0.0057265401232439632
aF-0.0014399381775276618
aF0.0043258899122444808
aa(lp162
F0.010471169867994781
aF0.0029608277332580585
aF0.00049191850048246649
aF0.0027047318870424518
aF-0.00024667612406397029
aF-0.014310353668882418
aF0.0042552929982928329
aF-0.0032402283028279254
aF0.0042510365349923427
aF0.0057270765949065166
aa(lp163
F0.028369030785252467
aF-0.010343560559827446
aF-0.013937698526129166
aF0.010600050681166501
aF-0.0034975785746561121
aF-0.010525682548985024
aF0.0070924211312180336
aF-0.01056468312441986
aF0
aF0.0035598185319192454
aa(lp164
F0.0052509652865878409
aF0.0038609780218869317
aF-0.012443288732564763
aF0.0032073795149642403
aF-0.0018270604744097974
aF-0.011135437238142849
aF0.0025537765203240909
aF-0.0060208408730975218
aF-0.00069919564354896564
aF-0.003263865963445454
aa(lp165
F0.011450362300181635
aF0
aF-0.0037736127401509782
aF0.0037879068336368954
aF0
aF0
aF0.011320735774063976
aF-0.0074626404531658655
aF0.0037593240605926104
aF0.0037453461519377121
aa(lp166
F0.0050095770558483185
aF-0.0034509045797509064
aF-0.019622943844602912
aF0.003532166056590738
aF-0.00508402556014896
aF-0.0062893187798849486
aF0.0079113611788266362
aF-0.0051020274814789369
aF0.0031558239502975263
aF0.014942961880933097
aa(lp167
F0
aF0.0017065415244597365
aF-0.018171492437734686
aF0.0063620007887795031
aF0
aF-0.0045977011494251901
aF0.0051963048498845183
aF-0.0051694428489373837
aF0.0017321016166282411
aF0.0086455331412102921
aa(lp168
F0.023468796633637677
aF0.0057792834773346619
aF-0.0014828934096552948
aF-0.00092814566984543586
aF-0.00092900792452783854
aF-0.012832399089378816
aF0.0088545134477040956
aF-0.0037348466607178333
aF-0.0035613621909752484
aF0.0037622467566287717
aasg15
S'PNW'
p169
sg17
(lp170
g19
(g21
S'\x00\x00\x00\x00\x00\x00\x00\x00'
tRp171
ag19
(g21
S'TO\xce\xe9\xf6\xc8\x7f?'
tRp172
ag19
(g21
S'\xaaT\xa3uc\x8d\x89?'
tRp173
ag19
(g21
S'\x8e\xe4\xd2\xb5k\xf6\x90?'
tRp174
ag19
(g21
S'\xcc\xf4\xfd\x04\x7f\xdc\x91?'
tRp175
ag19
(g21
S'\x19\xca\x89]\xa4\xc0\x91?'
tRp176
ag19
(g21
S'QZe#y\x08\x92?'
tRp177
ag19
(g21
S'\xf0\xf2\xf3\xb1A{\x9a?'
tRp178
ag19
(g21
S'l\xe2\xb1ay\x0e\x9c?'
tRp179
ag19
(g21
S'\x12oqe\x1d\xad\x9a?'
tRp180
asg32
(lp181
F0.018253526930105405
aF-0.00024221173067360521
aF-0.019263435676478941
aF0.0027177394459941802
aF-0.0011087347815385371
aF-0.020226935860213551
aF0.0071752264054574565
aF-0.0082490186664412376
aF0.002268443661460512
aF0.0035206714890061728
asg34
(lp182
g19
(g21
S'\x00\x00\x00\x00\x00\x00\x00\x00'
tRp183
ag19
(g21
S'\x8d;\x82\x9dL\x07g\xbf'
tRp184
ag19
(g21
S'~,y;\x88\x17S\xbf'
tRp185
ag19
(g21
S'\x9aX\xa2\x7f\xc84u?'
tRp186
ag19
(g21
S'\x8d2Hiw\x84y?'
tRp187
ag19
(g21
S'\x82\x8eC\xdc:\xca\x89?'
tRp188
ag19
(g21
S']\xaf\xcf$|\xb6\x93?'
tRp189
ag19
(g21
S"\xaa\xa4\x0eV'\xde\x96?"
tRp190
ag19
(g21
S'\x1d\xe7\x91\r\xbb\xc9\x9b?'
tRp191
ag19
(g21
S'\xad\xf2\xf8\r\x0c\x89\x9d?'
tRp192
asg46
g19
(g21
S'[\xbd\xef}\x00\xb7\xf1?'
tRp193
sa(dp194
g3
(lp195
(lp196
F0.0017221517927666205
aF0.0097421669829653706
aF0.00056750902893747438
aF-0.0037814398878713712
aF0.0058834895007684211
aF0.0045283290650122935
aF-0.011833219130916891
aF0.021288707632860455
aF-0.0020472864890540721
aF0.0024244822855432435
aa(lp197
F0.0031500742942050532
aF0.0094744099365500576
aF-0.0062534348538286618
aF0.0094284410319740528
aF0
aF0.0031170046967835445
aF-0.0062040331518079415
aF0.015612244353500546
aF0.0061625591694991644
aF-0.0030597965705215398
aa(lp198
F0.0098187225249869274
aF0.016205375322830149
aF-0.0014719596647230246
aF0.0054053396943575535
aF0.0021994137655205782
aF-0.00024381320637523795
aF-0.01634142623728781
aF0.018596597474832936
aF0.0038948186715016594
aF-0.005577175103622563
aa(lp199
F0.0033374856072041427
aF0.003534355560694208
aF-0.0012430490468239069
aF0.0082970711295271404
aF0.0034971888231443383
aF0.0034850861027459793
aF-0.0014300354101083634
aF0.018412388011744447
aF0.010847754863683451
aF0.00059616288599436199
aa(lp200
F0.0046675384059654268
aF0.012885702789521433
aF-0.00069235826848059411
aF0.012730587921273254
aF-0.0082093294303176977
aF0.003276409641065456
aF-0.0079064884160665316
aF0.01481288955625619
aF-0.0079385487334435074
aF0.0025812768664492378
aa(lp201
F0.0057778696750146238
aF0.014452438072916674
aF0.0035765734724972019
aF0.010394389933064333
aF0.0056434500077933132
aF-0.0035073767221416047
aF-0.0043409710564434652
aF0.017557361159114649
aF-0.0074692149987639518
aF0.0012834029364875976
aa(lp202
F0.0011980412811281337
aF0.01303021875182876
aF0.0018432671235843732
aF0.0076225674136632523
aF0.0029999134271837735
aF-0.0013003640881500097
aF-0.0087240390209141865
aF0.014843104635261568
aF-0.0063422931114748725
aF0.0029960058000225655
aa(lp203
F0.0093896141632951145
aF0.023011068583451887
aF-0.0014357953209671718
aF0.008147624407063141
aF0.0057048302102510875
aF0.0021271603510193398
aF-0.0089622851042193991
aF0.01285104560113714
aF-0.00093988753164220631
aF0.0051740811333069311
aa(lp204
F0.0032102599484691036
aF0.017600034425001975
aF0.0062892827232828678
aF0.014062505001481887
aF0.0061633438484527516
aF0.016845321488786202
aF-0.013554221513932889
aF0.012213731336484922
aF0.0060331978594881297
aF0.0044977526593576915
aa(lp205
F0
aF0
aF0
aF0.01470602501845941
aF0.0072464460917099818
aF0
aF-0.0071943128911771716
aF0.014492892183420081
aF0
aF0.0071429244576707625
aasg15
S'ULTA'
p206
sg17
(lp207
g19
(g21
S'\x00\x00\x00\x00\x00\x00\x00\x00'
tRp208
ag19
(g21
S'\xa9/cTI\xde\x89?'
tRp209
ag19
(g21
S'\x17\xbb\x12@w\xb1\x8f?'
tRp210
ag19
(g21
S'\x80O>\x93\xb7\xad\x94?'
tRp211
ag19
(g21
S'\r\xf1\x8dK\xec\x1f\x95?'
tRp212
ag19
(g21
S'\x92\xf6\x07\x0f>E\x95?'
tRp213
ag19
(g21
S'\xecc\xc7\x0b\xb4\x9c\x93?'
tRp214
ag19
(g21
S'W\xec\x99\x19V\x07\x93?'
tRp215
ag19
(g21
S'x\xf8\xf3;\x11B\x95?'
tRp216
ag19
(g21
S'\xad\x8f\x15\xc1\xb6\x0b\x9a?'
tRp217
asg32
(lp218
F0.0040206612779875826
aF0.012463235483559858
aF-0.001937324907174762
aF0.014274795179439364
aF0.0058607206720953714
aF0.0038051727243893904
aF-0.01231982230997034
aF0.01990963059389856
aF0.002743902619482159
aF0.0010945545607641879
asg34
(lp219
g19
(g21
S'\x00\x00\x00\x00\x00\x00\x00\x00'
tRp220
ag19
(g21
S'\xa2\xfc2\xa8!\x1er?'
tRp221
ag19
(g21
S'\xf9& \xfdC\x88\x83?'
tRp222
ag19
(g21
S'\x12\xfc\x03\xf9\xed\xd8\x88?'
tRp223
ag19
(g21
S'\xf0\xa3\x9f\xbbuw\x96?'
tRp224
ag19
(g21
S'\x98s0\xd2\x08\x0c\x99?'
tRp225
ag19
(g21
S'r\xe3\xc1\xdb\x1f8\x93?'
tRp226
ag19
(g21
S'\x16h\x94\x94\x87\x9d\x9a?'
tRp227
ag19
(g21
S'}\x13\xfb\xe4"H\x9b?'
tRp228
ag19
(g21
S'xB(\x94\x9b4\x9d?'
tRp229
asg46
g19
(g21
S'\xfc\xff\xd0\x04\xe8\xf0\xf1?'
tRp230
sa(dp231
g3
(lp232
(lp233
F0
aF0.016128674600611702
aF0.0052913444679570333
aF0
aF-0.0052634935106871316
aF0.015873351441702176
aF0
aF-0.010416659673892834
aF0
aF-0.010526308648708788
aa(lp234
F0.0076718076961794866
aF0.017765824881303568
aF0
aF0.0024944477421334115
aF0.0099503872014181823
aF0.019704449835483712
aF0.0072456008494566539
aF-0.011989712529074449
aF0
aF-0.0097088721110398617
aa(lp235
F0.00287448915310162
aF0.014331250740703568
aF0.0078492504793726218
aF0.004672938062556844
aF-0.0049612312404720355
aF0.0096603618069868013
aF-0.012345717541115809
aF-0.0071875154354069139
aF-0.0078690576742189034
aF-0.010152265837256881
aa(lp236
F-0.010636158422758592
aF0.012170413896431507
aF0.0042083466439192668
aF0.0093794170756629977
aF0.0049426973636430092
aF0.013377825043543484
aF-0.014560294130232075
aF-0.014578335883078913
aF-0.003198711215909832
aF-0.011833156160865572
aa(lp237
F-0.0032362305938700392
aF0.01747059369202205
aF-0.0016714937447649962
aF0.002130882897909464
aF0.005467816249563516
aF0.011480393269504228
aF-0.0016427867628850609
aF-0.0044875842778633376
aF0.0042073476690901038
aF-0.0088284300814474512
aa(lp238
F0.0023785117155665303
aF0.015254268842774921
aF0.00016691554499817578
aF-0.0081789767635344988
aF0.0084146879899252847
aF0.013017386707191925
aF-0.0032949021468982663
aF-0.00033058600388586728
aF0.0011574008226924695
aF-0.0082576288582509039
aa(lp239
F0.002567394354686052
aF0.0064020493014799087
aF0.012722647585869903
aF-0.0012562815313944397
aF-0.0025157235197848797
aF0.016393444251876093
aF-0.0099255592829954678
aF-0.0062656647790842795
aF0.0025220683464425302
aF-0.0062893087994621991
aa(lp240
F0
aF0.0076333459760319052
aF0.015151457993025854
aF0.0074628652877255265
aF0.0074075834900316573
aF0.022058530369738694
aF-0.014388434798461663
aF-0.014598484135602987
aF0.014814757132575705
aF-0.0072990401356337114
aa(lp241
F0.0011973240680330708
aF0.016746690278699908
aF0.0035294184928676897
aF0.0023445120383898564
aF-0.0023390281587136194
aF0.022274051619710696
aF0
aF-0.011467605066741004
aF0
aF0.0058003182928138847
aa(lp242
F0
aF0.01754471915771591
aF0.0062675906435514621
aF0.0093466063621895357
aF0.0092600562614222927
aF0.015289763892425407
aF0.01054084368953466
aF-0.0014882344744336533
aF0.0089523678530364532
aF-0.0059152893887919472
aasg15
S'MAT'
p243
sg17
(lp244
g19
(g21
S'\x00\x00\x00\x00\x00\x00\x00\x00'
tRp245
ag19
(g21
S'\xe5\xc8\x16k\x8e\x8b\x85?'
tRp246
ag19
(g21
S"<'\x15\x1f\x06\xed\x8b?"
tRp247
ag19
(g21
S'\xb9\x11Iu{\x8b\x92?'
tRp248
ag19
(g21
S'\xdb0\xa3O\xf4\xe6\x92?'
tRp249
ag19
(g21
S'\xce\x8ajS\xae:\x98?'
tRp250
ag19
(g21
S'\xde\xfb\xf9\x88\r\x97\x93?'
tRp251
ag19
(g21
S'\xaf,?\xd6\xa5\xfa\x93?'
tRp252
ag19
(g21
S'\x9e\x7fM`\x9dm\x95?'
tRp253
ag19
(g21
S'"m\x10}\xa5\xaf\x95?'
tRp254
asg32
(lp255
F0.0022187639372032559
aF0.01612903174797501
aF0.0065359163854368813
aF0.0086579777365490586
aF0.0073575109551657844
aF0.020085178938369669
aF-0.0083531622911696343
aF-0.009627075233027884
aF0.0012150972791676272
aF-0.010012075546482976
asg34
(lp256
g19
(g21
S'\x00\x00\x00\x00\x00\x00\x00\x00'
tRp257
ag19
(g21
S'\x10\xfb%\x80.1_?'
tRp258
ag19
(g21
S'\xca\xc6\x14\x9cU\x12I?'
tRp259
ag19
(g21
S'\xdb\xe4Z\xcf\xdf\x81y?'
tRp260
ag19
(g21
S'\xa4\xf1\x9e\xe8\xc5\x87\x86?'
tRp261
ag19
(g21
S'\xaa\xaf&\x8c6\x99\x87?'
tRp262
ag19
(g21
S'\xf5\x1c\x16\x1f\xc3\xa0\x89?'
tRp263
ag19
(g21
S'\x7f\xcc\xa4\x19k\xd7\x91?'
tRp264
ag19
(g21
S'c\xef\xc5\x1djU\x93?'
tRp265
ag19
(g21
S'\x85E#\xd2\xa5P\x9a?'
tRp266
asg46
g19
(g21
S'\xe8\x1cw\xfeJj\xf3?'
tRp267
sa(dp268
g3
(lp269
(lp270
F-0.0022964997567554257
aF0.0038363469385792283
aF-0.0010191217347022144
aF0.0056108459188723807
aF0.0045650706077221964
aF0.0020196358310955146
aF0.0010078238558780381
aF0.0085577816855225974
aF-0.010731232395908107
aF-0.0083248619588612016
aa(lp271
F-0.001846330585615906
aF0.0025896763439643869
aF-0.00036900964248355996
aF0.0084901942318992875
aF0.006222568535225635
aF-0.00036377451423282882
aF0.0003639068942865239
aF0.00036377451423296939
aF-0.0098181820482533093
aF0.0018362396878248816
aa(lp272
F0
aF-0.005479438577812139
aF0.0027548141236902164
aF0.0096154157077074261
aF0.0068027041013439754
aF0.0040540439990670958
aF0
aF0.0067294584776865949
aF-0.013368951153694185
aF-0.0067750509014118596
aa(lp273
F0
aF0.0015822320820619491
aF-0.0015797325784951755
aF0
aF0.0047468118196381569
aF0.0062992580824317778
aF0.0031299129120076173
aF0.006240180295747199
aF-0.0093022795176349472
aF-0.0062598258240152346
aa(lp274
F0.0015051256768785306
aF-0.0017341274369522409
aF-0.0022002859233776861
aF0.014507889739375675
aF0.004576063046837768
aF0.0047831287116401836
aF-0.00045337387261939999
aF0.0090712764203125951
aF-0.0065175211795572242
aF-0.0050899783487083732
aa(lp275
F0.0037271746004437804
aF0.0050130029973807378
aF-0.0057269799191977102
aF0.0052025060357342601
aF0.0072089391502757139
aF0
aF0.0023856954625209679
aF0.0051263706713885341
aF-0.0023679423425931431
aF-0.0049297122552784574
aa(lp276
F0.0036692141616700121
aF0.0019498400271734698
aF0.0055947314434928357
aF0.0084663473927096954
aF0.0040777660150633083
aF0.0011944376186515642
aF0
aF0.0021474618598129433
aF-0.0016666721022849875
aF-0.0057238520995797851
aa(lp277
F0.0028676684495983311
aF0.0049019459008528511
aF-0.0036585255314077886
aF0.0057119369828085272
aF0.002839748029612065
aF-0.0048543543361737182
aF-0.0020325141841154863
aF0.0081466148466900791
aF-0.0024270759177301474
aF-0.0032441644419464407
aa(lp278
F0.0092807083816579834
aF-0.0011494211056183562
aF-0.0034522313844695587
aF0.0080831113343953123
aF0.0045818822704525872
aF0.0079818439567982801
aF0.0022624350820075636
aF0.011286640119473527
aF-0.012276740974205105
aF-0.0056496940979104682
aa(lp279
F0.0040974594110595002
aF0.00061217100424915995
aF0.00020387438409724055
aF0.0030581448126023535
aF0.00406505073038518
aF0.0055667508431148077
aF-0.009964741015898183
aF0.0079300324529277526
aF-0.010187633752144784
aF-0.0052990524395920046
aasg15
S'CINF'
p280
sg17
(lp281
g19
(g21
S'\x00\x00\x00\x00\x00\x00\x00\x00'
tRp282
ag19
(g21
S'\xeazj\xc8\xb7os?'
tRp283
ag19
(g21
S'\xbbj\xc2P\xce\x8e\x85?'
tRp284
ag19
(g21
S'\x13=\xe4u\x00\xa6\x81?'
tRp285
ag19
(g21
S'F\x19B\x1d8\x10\x8c?'
tRp286
ag19
(g21
S'\xc9\x95U\xb2C-\x8e?'
tRp287
ag19
(g21
S'Hd\x9dt\xacO\x93?'
tRp288
ag19
(g21
S'\xb6q\x9f\x19\xa0\x86\x95?'
tRp289
ag19
(g21
S'a\xf5kU;\xf1\x99?'
tRp290
ag19
(g21
S'U/\xf8\xcc\x17\xa5\x97?'
tRp291
asg32
(lp292
F0.0020093904351134936
aF0.0029410961387260877
aF-0.00066643564381917066
aF0.0097371747400670297
aF0.006076710940952937
aF-0.00091922264079714866
aF0.0014456696777851968
aF0.0073491472709638541
aF-0.010422133652367594
aF-0.0060558057669273576
asg34
(lp293
g19
(g21
S'\x00\x00\x00\x00\x00\x00\x00\x00'
tRp294
ag19
(g21
S'\xb6\xac\x92\x90m*L?'
tRp295
ag19
(g21
S'Z\xe4\xe3WBBm?'
tRp296
ag19
(g21
S'h\xdei\x90_B|?'
tRp297
ag19
(g21
S'\xae\xd5\xe4\xbc(\xab\x89?'
tRp298
ag19
(g21
S'D\x8e\x04\xa0XC\x91?'
tRp299
ag19
(g21
S'})\xd4,j\xfb\x94?'
tRp300
ag19
(g21
S'\xf4\xe3\x07Gu~\x95?'
tRp301
ag19
(g21
S'\xc6\xa0\x11\xb0@\xca\x97?'
tRp302
ag19
(g21
S'\x1d\x12\x00\x06\xdd2\x9a?'
tRp303
asg46
g19
(g21
S';D\xb9\x81d\xba\xf1?'
tRp304
sa(dp305
g3
(lp306
(lp307
F0.013328775072966653
aF0.011129859378390448
aF-0.014009411009613089
aF0.0087956694438479904
aF-0.012407650921817562
aF-0.011545026700080291
aF0.014084473742995002
aF-0.0054199670531475588
aF0.015326960086903572
aF-0.0013419293450635374
aa(lp308
F0.012345684521684415
aF0.0060975636635017295
aF-0.0060606087160162466
aF0.0060975636635017295
aF-0.0060606087160162466
aF-0.012195127327003459
aF0.0061728422608422076
aF-0.012269944092253779
aF0.0062111829132189458
aF0
aa(lp309
F0.0073843219138284601
aF0.015705883896408739
aF-0.018556089441965733
aF0.0063030927457090177
aF-0.0020883379566983828
aF-0.013598000935501288
aF0.012725388758388349
aF-0.011518585295944012
aF-0.0010591021000969044
aF0.001060224986606795
aag159
a(lp310
F0.013129590905616157
aF0.0085105947517270311
aF-0.00076717988098665136
aF0.013051834318437077
aF-0.00018941918278039073
aF-0.0049271017398117341
aF0.010664669928662199
aF-0.0071603903036786421
aF0.0077813598733513789
aF0.0013182758573849489
aag164
a(lp311
F0.0056831015286343857
aF0.0097864705742267757
aF-0.01324036266042075
aF0.0073313620967473958
aF-0.0016479708679294283
aF-0.0088031392813732803
aF0.01859569754356008
aF-0.0047684396689189517
aF-0.0075290091962838023
aF0.0026205417810470488
aa(lp312
F0.01358614120464046
aF0.0099750613025989133
aF-0.021296354401486622
aF-0.010722116374245668
aF-0.0019127086048823312
aF-0.0073458688068833633
aF0.018339758040901436
aF-0.0041074158875091414
aF0.00475889176737662
aF-0.002526049689107334
aa(lp313
F0.017450455818871863
aF0.0084301600503773524
aF-0.0054770575837866254
aF-0.0011594296464148008
aF0.0014509343791458478
aF-0.010431668809611699
aF0.012005846821355618
aF0.0043402079681240302
aF0.0069144898230313733
aF-0.0042918799789584284
aa(lp314
F0.012096667390341464
aF0.0079682103559993497
aF-0.0079052199009184004
aF0
aF-0.0079680960738244284
aF-0.012048202486755462
aF0
aF-0.0081300490685418947
aF0.0040984030546987148
aF0
aasg15
S'PCG'
p315
sg17
(lp316
g19
(g21
S'\x00\x00\x00\x00\x00\x00\x00\x00'
tRp317
ag19
(g21
S'Z\x9f\xcb\xf5\x1a\xfc\x80?'
tRp318
ag19
(g21
S"\xcd\xc299'\xa5y?"
tRp319
ag19
(g21
S'\xe0M\xd1\xdb\xa4\x16}?'
tRp320
ag19
(g21
S'>?\xf3\xc8\xbd\x02\x92?'
tRp321
ag19
(g21
S'M\xad\x86\x9et\xde\x90?'
tRp322
ag19
(g21
S'\n:\xffQX\x91\x94?'
tRp323
ag19
(g21
S'\xd7\xe5\xc7\x13\xa4|\x9c?'
tRp324
ag19
(g21
S'\x7fA)\xda<\n\xa1?'
tRp325
ag19
(g21
S'YJw\xb5|\x1c\x9c?'
tRp326
asg32
(lp327
F0.013431204332831544
aF0.0077053476299175161
aF-0.015139884005809548
aF0.0066770184261794371
aF-0.0015424802855936491
aF-0.015912281048403414
aF0.013500737621652357
aF-0.0055762238406512491
aF0.0065421498384182295
aF-0.0015476012899596026
asg34
(lp328
g19
(g21
S'\x00\x00\x00\x00\x00\x00\x00\x00'
tRp329
ag19
(g21
S'T!6AB[A?'
tRp330
ag19
(g21
S'9\x1a\x9ba\xa5IV\xbf'
tRp331
ag19
(g21
S'\xdd\xdb\xc0\xc85\xe1O\xbf'
tRp332
ag19
(g21
S'\xfc\xe9\rHs;h?'
tRp333
ag19
(g21
S'fK\x92\xe4\x85\x01\x7f?'
tRp334
ag19
(g21
S'j\xb6r\xec\xd0\x0c\x8c?'
tRp335
ag19
(g21
S'8\xe8\x06\xf9\x8c\xb1\x8f?'
tRp336
ag19
(g21
S'\xd5\xca\xe6\xe3\x86=\x94?'
tRp337
ag19
(g21
S'\x9a\xcaQ\x93\x1f\xff\x98?'
tRp338
asg46
g19
(g21
S'a)+\x97Ut\xec?'
tRp339
sa(dp340
g3
(lp341
(lp342
F0
aF0.0070170877365856804
aF-0.0069681913266810436
aF0.017543215505865295
aF0
aF0.010344811893006681
aF0.0068264645593010031
aF0.016948692154203405
aF0
aF0.013333417130036281
aa(lp343
F0.012832826630795722
aF0.0072854071282313472
aF-0.01037737999188627
aF0.019065813498022173
aF-0.0084190972928708373
aF0.016037779023707604
aF0.0049782102583110464
aF0.015479876382122804
aF-0.010975614130708805
aF0.0036992094762573198
aa(lp344
F0.0038978933926442976
aF0.016472542476565502
aF-0.0059034800949868691
aF0.01711692189915693
aF-0.0081282071813710468
aF0.0081948163464482648
aF0.00022900564836142028
aF0.0045781673592660823
aF-0.0052409621936411171
aF-0.0038941237775065958
aa(lp345
F0.010899126118709333
aF0
aF-0.0078166242390989883
aF0.013039921343824767
aF-0.0026817642932757059
aF0.011293421994833075
aF0.0082424126707641484
aF0.017668838258927743
aF0.0010365585984243419
aF-0.0005177426286386848
aa(lp346
F0
aF0.0075188317016564475
aF-0.003731404436554273
aF0.018726634491139295
aF-0.007352975009608481
aF0.0037037646019179409
aF-0.0036900973499754707
aF0.018518560628985884
aF-0.0036364232769903397
aF0.003649695113254095
aa(lp347
F0.0095237452401622045
aF0.014150947106607172
aF0
aF0.018604720608276032
aF-0.0045662743697553344
aF0
aF0.0091742505199756894
aF0.0090910382949613011
aF-0.0045045679477652614
aF0
aa(lp348
F-0.0016849021798474343
aF0.012658196659967322
aF-0.0083333468503575727
aF0.0067226694028758686
aF0.0058431119219295533
aF0.01120335274249005
aF0.014361868241931825
aF0.017394835663330544
aF0.0039761495842167618
aF-0.0011881544551647799
aa(lp349
F0.00395521390573398
aF0.0061720433445782829
aF-0.002349260391150331
aF0.019492388323927912
aF-0.0060310677152600476
aF0.0080041580650637278
aF0.0034579585876171777
aF0.0085513413885493893
aF0.0056948239606475258
aF0.0010066825890208491
aa(lp350
F0.00048580573411252529
aF0.0056653045401340247
aF-0.011266712881460837
aF0.010255601806826088
aF-0.0017724951653778388
aF0.0037126585331989695
aF0.0011257686532135712
aF0.0051405601870315124
aF-0.004634830881361871
aF0.0011239445066758801
aa(lp351
F0.0048266005090097062
aF0.0043668201654509919
aF-0.005217430914151752
aF0.008522836539008375
aF0.00433360179363757
aF0.013808037998886956
aF0.0076611393937366292
aF0.007602990261701627
aF-0.0077551798189843726
aF-0.00042249112551239517
aasg15
S'ZTS'
p352
sg17
(lp353
g19
(g21
S'\x00\x00\x00\x00\x00\x00\x00\x00'
tRp354
ag19
(g21
S'\xc6\x9b\xb0\x7f$?\x89?'
tRp355
ag19
(g21
S'\x18t\xde\xc1A}\x90?'
tRp356
ag19
(g21
S'\xc3Z{K#\x8a\x8b?'
tRp357
ag19
(g21
S'I;@\xd2\xa4\xc3\x92?'
tRp358
ag19
(g21
S'\xa9zZS\xe0\xa3\x90?'
tRp359
ag19
(g21
S'\xce\xb7 %\x00\x82\x9b?'
tRp360
ag19
(g21
S'.0\xd0\x04\x83\xfa\x99?'
tRp361
ag19
(g21
S'fp\x9dFl7\x99?'
tRp362
ag19
(g21
S'O\xa6{A\xd3\xb0\x97?'
tRp363
asg32
(lp364
F0.001053719682745627
aF0.012421052631579018
aF-0.0083177583697234998
aF0.016984714132621384
aF-0.0043298762886598632
aF0.012010726609842136
aF0.0065479845825247565
aF0.016060195488111245
aF-0.0060024009603840975
aF0.00080517310789057425
asg34
(lp365
g19
(g21
S'\x00\x00\x00\x00\x00\x00\x00\x00'
tRp366
ag19
(g21
S'N\x9f\xc5>L\xebY?'
tRp367
ag19
(g21
S'\x9e\xd5Y\xfcy\x1a1?'
tRp368
ag19
(g21
S'\x8b\x10\xfa\xa3\x89\x8cZ?'
tRp369
ag19
(g21
S'!8\x1b\x03LjI?'
tRp370
ag19
(g21
S'\x0b\xdf&\x9b\xe7Nq?'
tRp371
ag19
(g21
S'\xaah\x0f\x05\x10\xd0\x87?'
tRp372
ag19
(g21
S'\xde\x13o^\xb1\xa7\x93?'
tRp373
ag19
(g21
S'\xa4\x881\x8f\x96\xc9\x95?'
tRp374
ag19
(g21
S'\xaa\x0c\xf5u9\xba\x98?'
tRp375
asg46
g19
(g21
S'\xee\xd4\x9d\x1d>\xb3\xf0?'
tRp376
sa(dp377
g3
(lp378
(lp379
F-0.0039613809275183482
aF0.0004971580760574373
aF-0.0062111949089135362
aF0.005000037870247177
aF-0.00024882894835914033
aF-0.0044787150298006154
aF-0.00074980530011475161
aF-0.0032516375417518703
aF-0.012547049363904576
aF0.0040660453772757687
aa(lp380
F-0.0011884853616075167
aF0.003437374450520518
aF-0.0011858234206635135
aF0.01899488244281456
aF-0.0025889579288025399
aF-0.00012981180545833419
aF0.0027258436821670897
aF0
aF-0.0058252038834950967
aF0.0039061847432479337
aa(lp381
F-0.0019715099650549849
aF0.0065847039058291156
aF-0.02071524762381961
aF0.014250720449382723
aF0.00087815776405768188
aF0.0043869697613001636
aF-0.007425217671256039
aF-0.0090209045274497624
aF-0.012211342997488937
aF0.00022471880149697306
aa(lp382
F-0.0047403844278137344
aF0.0059537727181911667
aF-0.010416693472875153
aF0.014354116977871222
aF0.0040093744805389554
aF0.0011744945633459082
aF0.00070397024278576865
aF-0.0046893479901171913
aF-0.0056537207498269281
aF-0.0063966291775208461
aa(lp383
F-0.0018564277128406055
aF0.0012399567538641462
aF-0.011351891802096175
aF0.020041725826279107
aF-0.0030700188070198679
aF-0.0018476837079448897
aF0.0069930231304070785
aF-0.011029451028776453
aF-0.0061957678760933693
aF-0.014339127695934597
aa(lp384
F0.015145707720798473
aF0.0056657074626279749
aF-0.012769943152440177
aF0.016739604888115611
aF-0.00056132348163181209
aF0.003369519685006908
aF0.0039179762776396258
aF-0.011336189620585723
aF-0.0082707254395805192
aF0.0013268245643846023
aa(lp385
F-0.0028859890944859653
aF0
aF-0.0057886908791144913
aF0.010189189453889608
aF-0.0072045831296935698
aF0.0029027469920760436
aF0
aF-0.010130207385832495
aF-0.0058480084378075246
aF0.002941243032177545
aa(lp386
F0.0061538605487947507
aF0.0030581110852361663
aF0
aF0.012195085833986413
aF0
aF0.0030120552815251643
aF-0.0030030100492458604
aF-0.0090361022373768481
aF-0.0091185621040051536
aF0.0030674918159624325
aa(lp387
F-0.0016234162226531526
aF-0.0016259616531151442
aF-0.0097720362156839997
aF0.0016447770194966242
aF-0.0016420761703473739
aF0
aF0
aF-0.0065789172353775084
aF-0.011589398566540041
aF-0.0083752193097963445
aag350
asg15
S'EQIX'
p388
sg17
(lp389
g19
(g21
S'\x00\x00\x00\x00\x00\x00\x00\x00'
tRp390
ag19
(g21
S'\xf5\x9d\\frt\x8a?'
tRp391
ag19
(g21
S'\x10\xcc{\x998\x97\x8a?'
tRp392
ag19
(g21
S'b\x97\xd7\xaf\x0f$\x91?'
tRp393
ag19
(g21
S'W\xcf\xcb\xec\x93\x0b\x96?'
tRp394
ag19
(g21
S'+\x1c`v4\xff\x96?'
tRp395
ag19
(g21
S'N\x17*3\xe1\x1c\x97?'
tRp396
ag19
(g21
S'\xd5\t\xf74\xe8\x81\x97?'
tRp397
ag19
(g21
S"'\x85\xf0 |\xd5\x95?"
tRp398
ag19
(g21
S"^'S\xd8\xd2t\x95?"
tRp399
asg32
(lp400
F-0.0019127119273067046
aF0.00336662078391432
aF-0.012285796447006957
aF0.017691071192216704
aF-0.001797437356350666
aF-0.003987107395498353
aF-0.0012655500640842256
aF-0.0074991416500537087
aF-0.010004942601833896
aF0.0011316498641164244
asg34
(lp401
g19
(g21
S'\x00\x00\x00\x00\x00\x00\x00\x00'
tRp402
ag19
(g21
S'\xa6oj^+El\xbf'
tRp403
ag19
(g21
S'8\xcc\xf8y\x19\xe7y\xbf'
tRp404
ag19
(g21
S'A\x00\xbeS\xda4a\xbf'
tRp405
ag19
(g21
S'\x0e\xd6\xd8k\xe6yg\xbf'
tRp406
ag19
(g21
S'Jr\x80\xfc\x1f\x87s?'
tRp407
ag19
(g21
S'\xc9\x08lbt\xfb\x82?'
tRp408
ag19
(g21
S'm\xef\xfb\x07\xfa\x8a\x85?'
tRp409
ag19
(g21
S'r\xf4\xe9\x89\x14\xfd\x8f?'
tRp410
ag19
(g21
S'\xbf\x81%\x9d-\xad\x96?'
tRp411
asg46
g19
(g21
S'\x8cn\xefA\xec\xe8\xf0?'
tRp412
sa(dp413
g3
(lp414
(lp415
F-0.010294338436362875
aF0.020640338381933066
aF-0.0093949046081990596
aF0.010770004995499141
aF0.0081106550872987911
aF0.0015775832399049863
aF-0.0045676640552003234
aF-0.0036392404487461459
aF-0.014768937354789097
aF-0.0070922468231423346
aa(lp416
F-0.0051273690377262775
aF0.010574639189486678
aF2.6450692176094273e-05
aF0.017888727137892149
aF2.5985151274545729e-05
aF-0.0038678736273223867
aF-0.0084431909220615171
aF0.0045466780551905138
aF-0.0036627788496701101
aF-0.0031509651050667764
aa(lp417
F-0.01435142123600695
aF0.029343099833311941
aF-0.0050750484955871594
aF0.014977168431789185
aF0.0036356311612122261
aF-0.0017047045331082052
aF-0.0053361739809066836
aF-0.003218836393864455
aF-0.023789007770510597
aF-0.005733871867501638
aa(lp418
F-0.0074810714049476836
aF0.0087778453472252965
aF-0.0059586244548386728
aF0.015223581294322313
aF0.011246534885442137
aF-0.0037071523436554756
aF-0.0042790673996049144
aF-0.0012669487187915674
aF-0.0054501192996167366
aF-0.0048185358285021043
aa(lp419
F0.0044575248394697672
aF0.019316153949938398
aF-0.0020489588657294135
aF0.0069284426914717747
aF-0.0022935898910394522
aF0.0051085967133845866
aF-0.0078780849290731383
aF-0.0038425131702645074
aF-0.0038566123790506339
aF-0.012906414274672628
aa(lp420
F-0.0083458514275740973
aF0.0210402271789733
aF-0.0016485119198477239
aF0.026089788195859609
aF-0.0054715041084690127
aF0.0029126150307672762
aF0.0035495582681475363
aF-0.001607747248039669
aF0.0038647597284272805
aF-0.010426728419934571
aa(lp421
F-0.0048439671527039097
aF0.0046511590504819166
aF0.0071059714087788346
aF0.0082317504624542792
aF0.0054077173793162766
aF0.0013709983339001783
aF-0.0091626782419010813
aF-0.0047832116531645952
aF-0.0077965896581772311
aF-0.009687863695014164
aag382
a(lp422
F-0.010199568860980432
aF0
aF0
aF0.020614654269300547
aF0
aF0
aF0
aF-0.010101738352266913
aF0
aF-0.010199568860980432
aa(lp423
F-0.0072267460428099587
aF0.015696165095026367
aF-0.0022396997456701011
aF0.010998903963869754
aF0.017539998567246879
aF0.0041457082755015197
aF-0.0060842888204479893
aF-0.0063401926335543944
aF-0.014521463859969665
aF-0.003572212816405886
aasg15
S'GPC'
p424
sg17
(lp425
g19
(g21
S'\x00\x00\x00\x00\x00\x00\x00\x00'
tRp426
ag19
(g21
S'_\xf7\xb0=\x85r\x84?'
tRp427
ag19
(g21
S'\xc7*PH\xa2\xa4\x8f?'
tRp428
ag19
(g21
S'\x0bg\xa3y\xa4(\x92?'
tRp429
ag19
(g21
S'\x90\xac\x0c&\xe8T\x93?'
tRp430
ag19
(g21
S"\xd6nY'\xccl\x98?"
tRp431
ag19
(g21
S'\x10W\x90\xc4\xa5\xd7\x95?'
tRp432
ag19
(g21
S'\x88C\x95\xd8\xa2\x14\x94?'
tRp433
ag19
(g21
S'\xa5q;{m\x06\x98?'
tRp434
ag19
(g21
S"\x16\x7fen'\xb4\x95?"
tRp435
asg32
(lp436
F-0.0092030743019686813
aF0.020355781235843355
aF-0.0030989734050169125
aF0.019720215276467445
aF0.0025721348711809922
aF-0.00057010643424749128
aF-0.0077961494580719706
aF-0.0050785645354679875
aF-0.0083791099223902259
aF-0.0095182207606664786
asg34
(lp437
g19
(g21
S'\x00\x00\x00\x00\x00\x00\x00\x00'
tRp438
ag19
(g21
S'p\xb1$1n;m?'
tRp439
ag19
(g21
S'\xb8\xc1*\xc8\xe52\x87?'
tRp440
ag19
(g21
S'eLu\xc5\xbe1\x80?'
tRp441
ag19
(g21
S'\x1c\x87\xb8B;\xe3x?'
tRp442
ag19
(g21
S'O\xe4\x9b{k\x02\x91?'
tRp443
ag19
(g21
S'\xe0\x81\xa5[\xfc\xf2\x90?'
tRp444
ag19
(g21
S'zA\x7f\x97\x04\x14\x92?'
tRp445
ag19
(g21
S'\x9f\xb9\x84\xb0\xfe\x90\x90?'
tRp446
ag19
(g21
S'\x0e\x87\\\xc2\x9c\x91\x95?'
tRp447
asg46
g19
(g21
S'\x7fY\xa2Z\x12\xcd\xef?'
tRp448
sa(dp449
g3
(lp450
(lp451
F-0.00065143580190678448
aF0.007170742473282074
aF0.0040993011807924536
aF0.01439618773008652
aF0.0025418976842215245
aF-0.00084515094085446587
aF0.0027489288813210867
aF0.0069591278595215527
aF-0.00083771719345209189
aF0.0046112182945555226
aa(lp452
F-0.0069694355065468344
aF0.0089454434979118445
aF-0.0060663039411344207
aF0.024295766190215874
aF0
aF0.00057296979868796927
aF0.0038937745397498121
aF0.013461010309028427
aF-0.0022512067292323906
aF0.0041742263266862445
aa(lp453
F-0.0077557171058133187
aF0.0071463933500665548
aF0.0070069713289509549
aF0.017659729935182517
aF0.0066643283134469652
aF-0.001246638321009255
aF0.0043042224051631521
aF0.010585869707402634
aF-0.005640381607628764
aF-0.0037531667004171796
aa(lp454
F-0.010202809031094703
aF0.0034392014717560303
aF0
aF0.013696575550910603
aF0.0033806742423590644
aF0.0067304230037207712
aF0.006690962601887728
aF0.013289598626205814
aF0
aF0
aa(lp455
F-0.006213469294811474
aF0.007905177721044928
aF0.0035650619807025691
aF0.0046180771803750274
aF-0.00070715451519450792
aF0.0029723914866637015
aF0.0052921246528068872
aF0.0025970034088565156
aF-0.0021880525411208779
aF0.0069322480764334206
aa(lp456
F-0.0025572417643663593
aF0.0087793452187875255
aF-0.0016173126936388762
aF0.014965693827511818
aF-0.011552816083010359
aF0.0050429745756484902
aF0.0045546689556065926
aF0.0091447188003490956
aF-0.0003807704301742892
aF0.0040374660380183992
aag93
a(lp457
F-0.0069084596399017839
aF0.0054347832210020963
aF0.0072432263501370263
aF0.012235695757415153
aF0.0036051636975074175
aF0.0042261228472385099
aF0.0037874844760343736
aF0.0094329024316929556
aF0.014017303610537912
aF0.0055293142031196257
aa(lp458
F-0.0052151243000299833
aF0.0018021051050170309
aF0.005396547681976633
aF0.012687027539913857
aF0.0056216162042971923
aF-0.00031944299612834601
aF-0.0015976839280327853
aF0.0091214627607692569
aF-0.0006343268543490886
aF0.0061884889767604171
aa(lp459
F-0.0073529375204448291
aF0.0064814573639475808
aF0.00091998349924424445
aF0.014246278463814733
aF0.00090622753768218774
aF-0.0013581377599902137
aF0.01178608086394684
aF0.0098566869049290205
aF-0.0057675714416918584
aF0.012048217331075955
aasg15
S'ESRX'
p460
sg17
(lp461
g19
(g21
S'\x00\x00\x00\x00\x00\x00\x00\x00'
tRp462
ag19
(g21
S'\x8d\xfc\xc8-+\x9b\x82?'
tRp463
ag19
(g21
S"\xb5{'\xad(\x8c\x84?"
tRp464
ag19
(g21
S'\x056\x16l\x177\x85?'
tRp465
ag19
(g21
S'f\x9d/\xa0s?\x8f?'
tRp466
ag19
(g21
S'\xc3\x8bP\xf4<\x00\x91?'
tRp467
ag19
(g21
S'lS\xdd\xbf+\xa8\x97?'
tRp468
ag19
(g21
S'\x14D\x18s^F\x97?'
tRp469
ag19
(g21
S'B\xad\xd9S\x98\x83\x90?'
tRp470
ag19
(g21
S'+P\xab\xbf\x05%\x8b?'
tRp471
asg32
(lp472
F-0.0087834033663268234
aF0.0079354317162355203
aF0.004461409322417227
aF0.017896733459305061
aF0.00012836242629267092
aF0.00449119722828175
aF0.0040878769045461496
aF0.010814236916392756
aF-0.0015103210136056136
aF0.0044119247595633942
asg34
(lp473
g19
(g21
S'\x00\x00\x00\x00\x00\x00\x00\x00'
tRp474
ag19
(g21
S'\xa0\xc4+\x14\xa2hO?'
tRp475
ag19
(g21
S'Fo\xd6\x04\x05\x00q?'
tRp476
ag19
(g21
S'8(\x90\xae\xa7\xac}?'
tRp477
ag19
(g21
S'\xcb~\xd3\xf8l\xf2\x83?'
tRp478
ag19
(g21
S')_\xfb\x83i(\x91?'
tRp479
ag19
(g21
S'oqO\xed[\x99\x92?'
tRp480
ag19
(g21
S'W\xefZ\x8d\x89r\x94?'
tRp481
ag19
(g21
S'"?\xfe\xf2-\xd7\x93?'
tRp482
ag19
(g21
S'8\xb4;\x87Z\xce\x94?'
tRp483
asg46
g19
(g21
S'NF\xc2@\x15\x87\xf8?'
tRp484
sa(dp485
g3
(lp486
(lp487
F-0.014823107499490664
aF0.019559924672315675
aF-0.01291275906309541
aF0.014202985342600911
aF0.0033167702058513014
aF-0.002754860285081919
aF0.0016574593252370125
aF0.0084574281647084842
aF-0.001093855032778612
aF0.0085781671121946158
aa(lp488
F-0.015567729507975428
aF0.030511627906976754
aF-0.008304748149485482
aF0.0049153468050246339
aF-0.0054347463768116338
aF-0.0096539887193446399
aF0.0034946479122547462
aF-0.0010997433614463069
aF0.00036697247706427754
aF0.0011005502567864494
aa(lp489
F-0.020368260633290333
aF0.022500675126979095
aF-0.0083565845089295116
aF0.012640449105995964
aF-0.01636613692645408
aF-0.016638443978855159
aF0.0086033029032977475
aF0.0014218125218623144
aF-0.0022715266961767185
aF0.011098454799775373
aa(lp490
F-0.020250033751696841
aF0.0081653497900916298
aF-0.007846035352628079
aF0.0015305496197406167
aF-0.00050933667736069064
aF-0.0048420923980204015
aF0.0035851352531360257
aF0.0028068829467920164
aF-0.0025444920411296056
aF0.014795831963079055
aa(lp491
F-0.023997522148847625
aF0.024587562730048137
aF0.008000839272164488
aF0.015874117209763439
aF0.0078133046256454227
aF0
aF0.0077521923219249457
aF-0.0049743038776620101
aF0
aF0.0078130824879352502
aa(lp492
F-0.011815561826147604
aF0.014873101810618541
aF-0.0089079921374635284
aF0.013337195034947883
aF-0.003147375725773365
aF-0.0080367183668643496
aF0.003472213070067199
aF0.019607822535684546
aF-0.00056560938546667779
aF0.014997131233048201
aa(lp493
F-0.017072540893687836
aF0.032257136020082809
aF-0.014422821951316859
aF0.012195781556019671
aF0.026505303033624618
aF-0.0093898593576646483
aF0
aF0
aF-0.0023703898531360246
aF0.0095013865530554666
aa(lp494
F-0.023809510255141383
aF0.021341445976068192
aF0.0014924958934951099
aF0.016393472582754059
aF0.026392952052045109
aF-0.011428568947339656
aF-0.0014450390564338055
aF0.0072463217452796748
aF-0.0014388877596846223
aF0.00576368621840958
aa(lp495
F-0.0093466160332648304
aF0.0094347994813680225
aF-0.0093466160332648304
aF0.0047172743946035768
aF0.0046953757111491985
aF-0.014019799875378386
aF0
aF0
aF0
aF0.0094792650836658787
aa(lp496
F-0.021798351452708638
aF0.02089139165192623
aF0.0013642162488561181
aF0.013531890425246626
aF0.0026918159039252577
aF-0.017449665550426041
aF0.0054645285484467305
aF0.014945631247526738
aF0.018741596050445668
aF0.0091984526547145163
aasg15
S'MNK'
p497
sg17
(lp498
g19
(g21
S'\x00\x00\x00\x00\x00\x00\x00\x00'
tRp499
ag19
(g21
S'\x8e-\xc4q)\x84\x82?'
tRp500
ag19
(g21
S'dw\xd8\x82\xfd_\x81?'
tRp501
ag19
(g21
S'\xbc\x86\xbe\x92\xbbM\x85?'
tRp502
ag19
(g21
S'\xae\x9b<!\xbae\x8b?'
tRp503
ag19
(g21
S'\xf9\x9a\x06\xf0\x97\xee\x92?'
tRp504
ag19
(g21
S'\xed`Y\np]\x8d?'
tRp505
ag19
(g21
S'\xe3p\xde\x06\x80\x9e\x92?'
tRp506
ag19
(g21
S'\x06mB\x87yI\x91?'
tRp507
ag19
(g21
S'\xfb\xeb\x8e\xd5\xcb\xb0\x92?'
tRp508
asg32
(lp509
F-0.026196620310478654
aF0.028727996866024574
aF-0.0077481838942988377
aF0.013339840355623113
aF0.0036923903725737061
aF-0.0099167946257198089
aF0.0042002906558871508
aF0.0046653957528958135
aF0
aF0.012009607493841353
asg34
(lp510
g19
(g21
S'\x00\x00\x00\x00\x00\x00\x00\x00'
tRp511
ag19
(g21
S'+\xff\x00\xf4V\xe2/?'
tRp512
ag19
(g21
S':j\xb9\xe2\xf8\x0cd?'
tRp513
ag19
(g21
S'.va5\xd3U\x80?'
tRp514
ag19
(g21
S'4\xe4A\x97b\x9es?'
tRp515
ag19
(g21
S'\x1d\x99G\xb9\xf6on?'
tRp516
ag19
(g21
S'D5\x02\xe7\xaa]\x82?'
tRp517
ag19
(g21
S'\xc88\x0b&\xa4\xd4\x87?'
tRp518
ag19
(g21
S'\xa3\x9a\x83A\x0f\xc5\x84?'
tRp519
ag19
(g21
S'Q\xeb4\xe4Q\x84\x94?'
tRp520
asg46
g19
(g21
S'\xae\x1c\xf1\xa08\x90\xf1?'
tRp521
sa(dp522
g3
(lp523
(lp524
F-0.00027490277430170179
aF0.0020627260773198016
aF-0.002881829719913423
aF0.0044040640858221082
aF0.00095917139118518004
aF0.0024640611823995508
aF-0.0030042433138401316
aF-0.0019175404848092922
aF0.00150954260313776
aF-0.00082220720972479779
aa(lp525
F-0.0054945054945055817
aF0
aF0
aF0.0055248618784531269
aF-0.0054945054945055817
aF0
aF-0.0055248618784529907
aF0
aF0
aF0
aa(lp526
F-0.00068768381082049985
aF0.0029816908754368016
aF-0.0022867155512630399
aF0.0055007281263066464
aF0
aF0.0050148483178995189
aF-0.0043093160085117309
aF0.0059225008487042395
aF0
aF0.0004529217021374111
aa(lp527
F0
aF0
aF0
aF0.0058476493093191284
aF0
aF0.0058142681759693728
aF0
aF0
aF0.0057800463651201325
aF-0.0057468294245935454
aa(lp528
F-0.0021401549026103498
aF0.00039007050193742333
aF0
aF0.0072108745379701666
aF0.0065792432462283175
aF0.0046135286989543419
aF-0.0034445717691741363
aF-0.003071872122437108
aF-0.0032744144345096329
aF0.0028985682668136994
aa(lp529
F0
aF0.0033557063261463582
aF-0.0033444832226384598
aF0.0033557063261463582
aF0.0033444832226382452
aF0
aF-0.0033333349398564616
aF0
aF0
aF-0.0033444832226384598
aa(lp530
F-0.0018083080579003263
aF-0.0036231679195442728
aF-0.0018181715004249148
aF0
aF-0.0018215424892151682
aF0.0036496737944974478
aF-0.0036364021129993789
aF-0.003649614466607414
aF0.0036629829421439986
aF-0.001824807233303707
aa(lp531
F-0.0065418013771541723
aF0.0036752865587131476
aF-0.0032042589191526726
aF0.0078066189351342751
aF-0.0018224517047214866
aF0.00015196807929029825
aF-0.00182550168096862
aF-0.0032008055848880522
aF0.0021406534507612462
aF-0.001220563544722763
aa(lp532
F0.0031900429281961282
aF0.00094210364019904505
aF0.0014119581953345888
aF-0.00070493545977289289
aF-0.00058793301690217585
aF0.00011766543565866246
aF-0.00011765159213281822
aF0.00058827888548209717
aF0.0034096639942174252
aF-0.0021091068871734145
aa(lp533
F0.00076488211975334888
aF0.0010189020247381886
aF0.0020359334284735259
aF0.0006349587301587783
aF0.00025376902587160286
aF0.0053285714285715149
aF-0.0025239399930322591
aF-0.006831996371052724
aF0.001783426751592396
aF-0.0052135809411697305
aasg15
S'EMC'
p534
sg17
(lp535
g19
(g21
S'\x00\x00\x00\x00\x00\x00\x00\x00'
tRp536
ag19
(g21
S'u\xac\xdf \xd2wp?'
tRp537
ag19
(g21
S'\xe9nKQ\x1d\xda\x80?'
tRp538
ag19
(g21
S'y\xfd\xce\xf9&\xee\x87?'
tRp539
ag19
(g21
S'\x0e2q\xe2H\xac\x89?'
tRp540
ag19
(g21
S'\xb1c\xbch!\xdc\x8a?'
tRp541
ag19
(g21
S'Nr\x1e\xe6Y\xf9\x8d?'
tRp542
ag19
(g21
S'\xfc\xf2\xde\xa7\xed\xd4\x94?'
tRp543
ag19
(g21
S'\x8d\xee*\xadW7\x92?'
tRp544
ag19
(g21
S'[\xd0\xc6\xba\xaa\xb8\x93?'
tRp545
asg32
(lp546
F-0.0021937477148080893
aF0.00036636129108238243
aF0.0010989377691918089
aF0.0065861690450056088
aF0
aF0.0036350781533987238
aF-0.0028975008005252098
aF0
aF0.00072640752900811996
aF-0.00036290382442480336
asg34
(lp547
g19
(g21
S'\x00\x00\x00\x00\x00\x00\x00\x00'
tRp548
ag19
(g21
S'+\xa19\x94\xc7W_?'
tRp549
ag19
(g21
S'\xfe1\xa8I\xecKy?'
tRp550
ag19
(g21
S'\xb6W\xe5\xed\xa4\x91\x81?'
tRp551
ag19
(g21
S'o\x8d\x9f\x96m{\x83?'
tRp552
ag19
(g21
S'xF\xf9r#\xa4|?'
tRp553
ag19
(g21
S'\xb2\xb4\x93\x82\xc2\xb8\x83?'
tRp554
ag19
(g21
S'\x8aFo\xd2R$\x89?'
tRp555
ag19
(g21
S'\x138\x0f?"\xaa\x8b?'
tRp556
ag19
(g21
S'\xae\xaf\xaaod\xda\x91?'
tRp557
asg46
g19
(g21
S'pB\xbc\xd2\xf2\xf7\xec?'
tRp558
sa(dp559
g3
(lp560
(lp561
F0.007600147874834623
aF-0.0074395849647726628
aF-0.0022902305330219468
aF0.0091820254331546163
aF0.0043424191652278949
aF0.010706201328034015
aF0.0022407774875948237
aF0.010162599929577446
aF0.00040242016825563085
aF-0.0034191595674470353
aa(lp562
F0.015019434457193791
aF-0.0083532777927497505
aF-0.0028880742873906421
aF0.011827136092338403
aF0.0019084557455748875
aF0.0092856993318604433
aF-0.0033026680877624223
aF0.016331365566158822
aF-0.00069867077175337386
aF-0.00093221233851860526
aa(lp563
F-0.0026732778190149504
aF-0.0032989623184970732
aF-0.0049648808407032965
aF0.011642447189333511
aF0.0010275140912060182
aF0.010675456803506548
aF-0.0046719542595008113
aF0.013061220959715429
aF0.0058420866173366469
aF0.0010013786231976426
aa(lp564
F-0.00032327902214956261
aF-0.0022635802229431772
aF-0.0030788576239196524
aF0.012191156420363234
aF0.0027300664152746543
aF0.010570108445467524
aF-0.0045959186600663809
aF0.010667110921402139
aF-0.01071201667077613
aF0.0019108475909209353
aa(lp565
F0.0075716235332448116
aF0.0043690823565424664
aF-0.0055681286000183539
aF0.0080491390192545861
aF-0.0076376985978278428
aF0.010669999191116246
aF0.0010384648730886424
aF0.010200546293771737
aF0.0013690802546638108
aF-0.0025636099345187052
aa(lp566
F0
aF0
aF-0.0036832779784838703
aF0.0036968946692077379
aF0.0018416081187825142
aF0.0055146684980695426
aF-0.0036562824795694964
aF0.0091743113622537002
aF-0.0018181695163291141
aF0.0018214812780634534
aag278
a(lp567
F0.0033785244916570275
aF0.0033669192219103693
aF-0.0033556211166712009
aF0.010100986941810263
aF0.0099999773016675158
aF0.0033002477039849867
aF-0.0032893918959329273
aF0.0033002477039849867
aF0
aF0
aa(lp568
F0.0032896158926572303
aF0
aF-0.0032788298020311507
aF0
aF0.0032896158926572303
aF0.016393479223324053
aF-0.0032259453342188566
aF0.012945102206410191
aF-0.0031950258021286103
aF0.0032052667119760775
aa(lp569
F0.016554441529420247
aF-0.0027142160325124127
aF0.0045359903337709052
aF0.0063212618892891604
aF0.0041881845818386868
aF0.0086386663192413865
aF-0.00059075693606686173
aF0.0065012593008505239
aF0.00058690131146369969
aF0
aasg15
S'ICE'
p570
sg17
(lp571
g19
(g21
S'\x00\x00\x00\x00\x00\x00\x00\x00'
tRp572
ag19
(g21
S'\x10\xd5\xbe\xd5\xb7^\x81?'
tRp573
ag19
(g21
S'\xe3\xf3\xac\xf5\x8b\xc8~?'
tRp574
ag19
(g21
S'\xfe+\xcb\xdfOW\x81?'
tRp575
ag19
(g21
S'9\xcf\x1a\xba\xe3\x05\x80?'
tRp576
ag19
(g21
S'\xce\xfd\xc4\x1aK\x1f\x85?'
tRp577
ag19
(g21
S'\xed\xa5\t\xbe.\x1c\x86?'
tRp578
ag19
(g21
S'=\xdazi\n[\x8e?'
tRp579
ag19
(g21
S'r\xf1e@,\xeb\x92?'
tRp580
ag19
(g21
S'V\xcc\x1a\x11\x1d\xf0\x91?'
tRp581
asg32
(lp582
F0.0084275934076997114
aF3.927492524187675e-05
aF-0.0036095338274966722
aF0.011537281143640917
aF0.0040873017193758477
aF0.0098472861142336419
aF-0.0034552516968373958
aF0.011403120996380899
aF0.0019424810791409208
aF-0.00053215740880387314
asg34
(lp583
g19
(g21
S'\x00\x00\x00\x00\x00\x00\x00\x00'
tRp584
ag19
(g21
S'}i\xc71\x8f\xebN?'
tRp585
ag19
(g21
S'\xe9\xdb\xa8g\xc8\x10Y?'
tRp586
ag19
(g21
S'\xd8\xe5cExW4\xbf'
tRp587
ag19
(g21
S'\x03\xa0\xe4"\xef\t8\xbf'
tRp588
ag19
(g21
S'2\xaa&\x1f\x9b\x97{?'
tRp589
ag19
(g21
S'\xbd\xa3\xb8\x0ec\xe0\x85?'
tRp590
ag19
(g21
S'\x9a\\J1\x01\xf2\x85?'
tRp591
ag19
(g21
S'u(I\x02\xc0K\x8d?'
tRp592
ag19
(g21
S'\xe6|\xcb\xe9D\xa2\x90?'
tRp593
asg46
g19
(g21
S'\x95\xc9$\x1ar\xac\xed?'
tRp594
sa(dp595
g3
(lp596
g125
a(lp597
F-0.021326312116174483
aF-0.014527847892763124
aF0.0098277623925170296
aF0.021896930864431775
aF0.0071438815089531057
aF0.028367794650851846
aF0.011494640706549143
aF0.0090915168588859684
aF0.0022520242567894487
aF-0.0089894984745607868
aa(lp598
F-0.021267915665741776
aF-0.0066861538940696432
aF-0.0075725890181946361
aF0.0038151853397030318
aF0.011824285436405416
aF0.030467454665552906
aF0.0044552324234424243
aF0.0040322563517250472
aF0.0012048399207045201
aF0.0056157320995932798
aag126
a(lp599
F-0.01633886044166041
aF-0.0066451176808411689
aF0
aF0.026755404738211336
aF0.003257626224451735
aF0.029220953583037401
aF0
aF0.0025299206549563016
aF-0.012619486646287113
aF0.009585427736648883
aag131
a(lp600
F-0.010576056879955862
aF-0.018904589126789079
aF0.0077435650120203621
aF0.027430311495945946
aF0.01078359069591666
aF0.036135225434330648
aF-0.012953563321228673
aF0.0075712400320719058
aF0.003673729195272383
aF0.001081419177171347
aa(lp601
F-0.019083996582877617
aF-0.011673118709258461
aF-0.0078740774322607256
aF0.037699028757746673
aF0.017207863653729786
aF0.018796898589554051
aF0.0036900661793632023
aF0.012868279745293998
aF-0.0036309554180788736
aF0.0036441872996992104
aa(lp602
F0.00633957589215077
aF-0.0079429495991140825
aF-0.0096632348415408541
aF0.023139169085588818
aF0.0092642970700650262
aF0.031857459908982824
aF0.0039245733230477411
aF0.014073518504129365
aF0
aF0.0048830250585445711
aa(lp603
F-0.024965376871815471
aF0.0010160559391467262
aF-0.0079171753571945936
aF0.032535312301071144
aF0.017241430129185841
aF0.0035066569570596732
aF0.0021355084995791536
aF0.0092987105858197191
aF0.00076777968207840473
aF0.0051783696618375799
aasg15
S'PBI'
p604
sg17
(lp605
g19
(g21
S'\x00\x00\x00\x00\x00\x00\x00\x00'
tRp606
ag19
(g21
S')r\x8f\xbf\xe7\xac\x80?'
tRp607
ag19
(g21
S'O\xbe\xcb\xd9\xeb-\x91?'
tRp608
ag19
(g21
S'\xc8\x13\xcePW,\x98?'
tRp609
ag19
(g21
S'V\xb0\x93L\xc7\x00\x9f?'
tRp610
ag19
(g21
S'\xa5\xe0\xd3\xc1N\x04\x9b?'
tRp611
ag19
(g21
S'\xb5@c\tEt\xa0?'
tRp612
ag19
(g21
S'+\xff\xc1\x08Uj\x9f?'
tRp613
ag19
(g21
S'\x94\x85\xf6\x16?\n\x9b?'
tRp614
ag19
(g21
S'\x15]JJ*\xae\x92?'
tRp615
asg32
(lp616
F-0.028667789282305355
aF-0.004629629361711165
aF0.0069766856408903675
aF0.027713568129330218
aF0.010674214082820946
aF0.030572595886603767
aF0.0032361918427081661
aF0.012365591397849294
aF0.0010621348911313399
aF0.0037135278514589007
asg34
(lp617
g19
(g21
S'\x00\x00\x00\x00\x00\x00\x00\x00'
tRp618
ag19
(g21
S'~\xc5\x11\xa9\xe2\xd2\x83\xbf'
tRp619
ag19
(g21
S'\xedV\xbfS\xcan\x80\xbf'
tRp620
ag19
(g21
S'}\xdc\xa5M"L~\xbf'
tRp621
ag19
(g21
S'=\xc9A\xfd\xe9\x85u?'
tRp622
ag19
(g21
S'\xd5\xfa\x17n\xc9\xec\x85?'
tRp623
ag19
(g21
S'\x008\x0e\xae~\xdc{?'
tRp624
ag19
(g21
S'\x97@\x1dtp\x03\x92?'
tRp625
ag19
(g21
S'r5\x08\xf0\x87\x7f\x97?'
tRp626
ag19
(g21
S'\xa8C\x86\xcb\xfe\x8b\x90?'
tRp627
asg46
g19
(g21
S'P\xf8\x0f\xcadX\xec?'
tRp628
sa(dp629
g3
(lp630
(lp631
F-0.0071363737877266371
aF0.0038232200483078334
aF0.0015234307141932422
aF0.0059324527000683544
aF0.00045376071394988499
aF0.009522316319812282
aF0.001796724581052187
aF-0.001494635356088607
aF0.0043406690555859578
aF0.0061103529535039775
aa(lp632
F-0.0075572447338531912
aF0.010638268599594681
aF0.0017728915871088253
aF0.0031037452405826521
aF-0.00718312434400369
aF0.0080142610992404006
aF-0.0036439370005655735
aF0.0028814655050410382
aF0.0082882169232789942
aF0.0055896798015200398
aag455
a(lp633
F-0.0010966464057749513
aF0.003293706402013926
aF-0.00018243703500560169
aF-0.0012768941051203135
aF-0.0045662172262511446
aF0.013211042504668587
aF0.0065193932707300287
aF-0.0014394090267489165
aF0.012432410913851591
aF0.006050893708935968
aag91
a(lp634
F-0.0066864914673286108
aF0.0072301385423201572
aF0.0049504107045587366
aF0
aF-0.0039408966998068966
aF0.0051929500940496413
aF0.0054522557522805595
aF0.0039438091268541552
aF0.013503537404008805
aF0.0036337587484472971
aa(lp635
F-0.0083143597252962383
aF0.0056795916122282641
aF-0.0049751604404217184
aF0.0047296906011999769
aF0.0073974986959215875
aF0.0020026847862475365
aF0.0055962372030568209
aF-0.00053001578755848002
aF0.012196719342267326
aF0.0034053949003588825
aa(lp636
F0.0032868507681599241
aF0.010919948286767586
aF-0.0010801136698767452
aF0.0078398739400462186
aF-0.00026821028587771956
aF-0.0034880789598106541
aF0.0070006058580969312
aF0.0040106246782470384
aF0.0063915171963673028
aF0.0052924183777676966
aa(lp637
F-0.0081872886600750545
aF0.0065169672436409982
aF0.004316591374232963
aF0.0083093750262784732
aF-0.0039783937556344172
aF0.0041369575838400971
aF0
aF0.00071038311913130072
aF0.011641102543761113
aF0.0061745049288324822
aa(lp638
F-0.0066006291064718827
aF0.0033222434500511343
aF0.0033112426956938357
aF0.0033003145532359414
aF0
aF0
aF0.0098684599172704363
aF0.0032573136370507897
aF0.003246737993109902
aF0.0032362307996183087
aasg15
S'DNB'
p639
sg17
(lp640
g19
(g21
S'\x00\x00\x00\x00\x00\x00\x00\x00'
tRp641
ag19
(g21
S'\x13D\xe8;]\x05\x7f?'
tRp642
ag19
(g21
S'\x10\xe6kf\x01\xd8\x84?'
tRp643
ag19
(g21
S'\xdd\xcc\x81V\xa4\x06\x93?'
tRp644
ag19
(g21
S'4\x02\x8bS\xd5\x16\x8d?'
tRp645
ag19
(g21
S'm*\xf7\xe3\x80x\x85?'
tRp646
ag19
(g21
S'sv\x91\xf0\\\x86\x83?'
tRp647
ag19
(g21
S'{a\x951C\xa9\x84?'
tRp648
ag19
(g21
S'\xdb\x1e\x12\xe1\n}\x84?'
tRp649
ag19
(g21
S'1nLQ\xdc\x0b\x86?'
tRp650
asg32
(lp651
F-0.0075566831884292694
aF0.0089242181834305843
aF-0.0010549784698130457
aF0.0058489196726062807
aF-0.00016150056533669347
aF0.013489482710270955
aF0.0063759942107596479
aF0.002059095637738869
aF0.0079032641105134284
aF0.0042343605758202842
asg34
(lp652
g19
(g21
S'\x00\x00\x00\x00\x00\x00\x00\x00'
tRp653
ag19
(g21
S'N\xe1\x80\x89I\xf8b?'
tRp654
ag19
(g21
S'2\xa60\x07\xb6\xfc>?'
tRp655
ag19
(g21
S'\xda\xfd`f\xa8bi\xbf'
tRp656
ag19
(g21
S"!'c\r\x94\x1dR\xbf"
tRp657
ag19
(g21
S'`\x17\x8dD\xb1}W?'
tRp658
ag19
(g21
S'\x06n\x97)t\xb9o?'
tRp659
ag19
(g21
S'6\xcb\x10\xf0l\x1f\x83?'
tRp660
ag19
(g21
S't\x16:\xc8\xfb\x01\x86?'
tRp661
ag19
(g21
S'\x85\xb21\xc6\x9ep\x8f?'
tRp662
asg46
g19
(g21
S'\xfeT&\x9f=\xd1\xf6?'
tRp663
sa(dp664
g15
S'SPXLINE'
p665
sg34
(lp666
g19
(g21
S'\x00\x00\x00\x00\x00\x00\x00\x00'
tRp667
ag19
(g21
S'\x9cA;\xaf\xfd\x1cL\xbf'
tRp668
ag19
(g21
S'\xc4g#\x93\xf2>J?'
tRp669
ag19
(g21
S'W\xb6\xb0\x90\x0f\xb6N?'
tRp670
ag19
(g21
S'\xab\xbf\xbc\xca\x84\x97S?'
tRp671
ag19
(g21
S'\xb1v[\xd6\xf2{f?'
tRp672
ag19
(g21
S':\xd4ng\x8c\xbcl?'
tRp673
ag19
(g21
S'\xd7\xfb\x90@D\x04s?'
tRp674
ag19
(g21
S'\x9e}RiHHx?'
tRp675
ag19
(g21
S'\xdd\xf9 mmd{?'
tRp676
asa.