(lp1
(dp2
S'matches'
p3
(lp4
(lp5
F0.00066317875839845238
aF0.021206093319507787
aF0.003893539751873145
aF0.01034263741545647
aF0.0031989733305884623
aF0.0082907927556646645
aF-0.0037950315619470205
aF-0.0038095674816057442
aF0.029955374405204842
aF-0.0037198252301842861
aa(lp6
F0.015441529028901427
aF0.03042096313794046
aF0.0036879187146640143
aF0.022058350322933976
aF0
aF0.015284379755948794
aF-0.0035854121468707869
aF-0.0035947904311164642
aF0.0072190550050738886
aF-0.0035854121468707869
aa(lp7
F0.01395296394336352
aF0.013761423069890363
aF0
aF0.0090483678057100628
aF-0.0044852064600437924
aF0.0045054141727967935
aF-0.0044852064600437924
aF-0.0090076301000592621
aF0.013635871156324293
aF-0.0044852064600437924
aa(lp8
F0.018666590367229504
aF0.02356023221369603
aF-0.002557511512573015
aF0.017948644930400715
aF-0.0075565771270782751
aF0.0025380379216659432
aF-0.0075949966299703603
aF-0.0025509873331001835
aF0.023017924565847184
aF0.0049999349007660504
aa(lp9
F0.017453063493960801
aF0.0051453411630050768
aF-0.0034130447626558483
aF0.017123343698404406
aF-0.0050500594649240541
aF0.013536352477206966
aF-0.0066777834086179152
aF-0.0067226759827572254
aF0.02368757643909581
aF0.0016534774154530049
aa(lp10
F0.015719501709625945
aF0.016666685181100264
aF-0.010538658291291188
aF0.021065058284936784
aF0.0013908698626327683
aF0.014583356273733675
aF-0.008898098276990167
aF-0.0002301718228688724
aF0.015887614045124284
aF-0.0024932120759253744
aa(lp11
F0.013522972689153503
aF0.032206102185088362
aF-0.0022286371352694219
aF0.016752291706209829
aF-0.0041739718281522909
aF0.016765911721974891
aF-0.0099804720643528241
aF0.0021915175647286853
aF0.011152447919210391
aF-0.0017301375029529216
aa(lp12
F0.010904912345690285
aF0.019492781493400439
aF0.0024132536595648023
aF0.0016666659796856797
aF0.0020336467874781921
aF-0.0046125442312378966
aF-0.0070435746980330258
aF-0.0095202123251244778
aF0.014888741393358381
aF-0.0027854766975743432
aa(lp13
F0.011177535236023869
aF0.0038559845429324896
aF-0.0017925571706191429
aF0.016931746552900404
aF-0.0047931065868598091
aF0.0083649833117945809
aF-0.0040221298852852376
aF-0.00025234603085743344
aF0.020196902660674285
aF-0.0039594239690513428
aa(lp14
F0.0107815195117792
aF0.021333209334871598
aF0.0026111839166777099
aF0.013020904109972914
aF-0.0102836313923379
aF0.0051952416462531393
aF-0.010335776214180685
aF-0.0052223678333554197
aF0.0052497841371654114
aF-0.0052223678333554197
aasS'symbol'
p15
S'AVB'
p16
sS'stDev'
p17
(lp18
cnumpy.core.multiarray
scalar
p19
(cnumpy
dtype
p20
(S'f8'
I0
I1
tRp21
(I3
S'<'
NNNI-1
I-1
I0
tbS'\x00\x00\x00\x00\x00\x00\x00\x00'
tRp22
ag19
(g21
S'\xa7\x8e\x08\xea:)\x81?'
tRp23
ag19
(g21
S'h^\xab\xe2\xe4\xcf\x87?'
tRp24
ag19
(g21
S'\x97\x15\xb8\x00\xfc\xc9\x91?'
tRp25
ag19
(g21
S'\xc3\xb6\xc4\x9dk!\x95?'
tRp26
ag19
(g21
S'\x92~\x85X\xef\xfc\x98?'
tRp27
ag19
(g21
S'},\x82j\xf0\xb2\xa4?'
tRp28
ag19
(g21
S'\xc1)wB\x04\xdd\xa0?'
tRp29
ag19
(g21
S'\x18\xecQU\n\\\x9a?'
tRp30
ag19
(g21
S'\xb9\x15\xefJ\xf2\x8e\xa1?'
tRp31
asS'current'
p32
(lp33
F0.013965279942926054
aF0.024650164710019233
aF0.0013489404451927612
aF0.012573702360046089
aF0.0018293807962159116
aF0.012118210424312638
aF-0.0056311791453461197
aF-0.00566306890083934
aF0.022615404281490514
aF-0.0021087866106976084
asS'future'
p34
(lp35
g19
(g21
S'\x00\x00\x00\x00\x00\x00\x00\x00'
tRp36
ag19
(g21
S'\xa6t\xe0\x9bt3q?'
tRp37
ag19
(g21
S'=\xa6\xdfE\xb5wu?'
tRp38
ag19
(g21
S'\x14AfA%\xeah?'
tRp39
ag19
(g21
S'\x81\x85E\xa1\xa78\x82?'
tRp40
ag19
(g21
S'`CX\xce9\xe5\x80?'
tRp41
ag19
(g21
S'&\xcfT6\xd2\x8a\x9b?'
tRp42
ag19
(g21
S'\x00A\r\x93~U\x9e?'
tRp43
ag19
(g21
S'\xfc\xf4\xcf\xb4D^\xa0?'
tRp44
ag19
(g21
S'n\xc2f>\x8f\xb4\xa8?'
tRp45
asS'sharpe'
p46
g19
(g21
S'b\x80\xde\x0f:\x83\xf6?'
tRp47
sa(dp48
g3
(lp49
(lp50
F-0.010643540122786123
aF0.01999801016400363
aF0.0095441879005362974
aF-0.0055762753166694497
aF0.00016119240069072374
aF-0.0058966230533921693
aF-0.020517267035167749
aF-0.022833293472098375
aF0.010599762621836574
aF0.0068359289294716947
aa(lp51
F0.0043298730550474984
aF0.006020965348572202
aF0.01226557522777301
aF-0.0063503733529702861
aF0.0079335961867981319
aF-0.025872920787247462
aF-0.015861038492104948
aF-0.029876791534322326
aF0.0051720511907712178
aF0.0049893760214505846
aa(lp52
F-0.037225142481858473
aF0.01658892679705188
aF0.0052079441354584283
aF-0.0051809619749250847
aF0.0017359813784861052
aF-0.015597264186273978
aF-0.019367317123966346
aF-0.025133312586474475
aF0.014732392011798505
aF0.016332714424334899
aa(lp53
F-0.015928680677785433
aF0.013330216897602179
aF0.012919687841037614
aF0.0030149392440227004
aF0.014797963946373748
aF-0.0084304218183763463
aF-0.018841723028791949
aF-0.01405168775205059
aF0.0073636041877357941
aF0.0082524481205526676
aa(lp54
F-0.022993865630122338
aF0.01610292566278022
aF0.0046886722120093038
aF-0.029027441002682848
aF0.0093242430964552477
aF-0.021428571428571429
aF-0.01995136739659371
aF-0.022740745463974497
aF0.001625810319040252
aF0.016232099015927905
aa(lp55
F-0.0095220392556002887
aF0.011687068545769029
aF0.0095025623268643455
aF0.0044296417069093399
aF0.01065787228807131
aF-0.0074545303956535681
aF-0.021615690069045571
aF-0.024714460950252381
aF0.015550029136614721
aF0.0086956381296625519
aa(lp56
F-0.021633851402499162
aF-0.0024577649578688761
aF0.01231599775823226
aF-0.01216615936674513
aF0.0073883568593683191
aF-0.031784049925162941
aF-0.020202106500339111
aF-0.01288582062196349
aF-0.0052235529270550926
aF0.0052509817079254388
aa(lp57
F0.008065778712087043
aF0.015999907202084763
aF0.007873336517426572
aF-0.0078118313404657068
aF0.007873336517426572
aF-0.015624921334172481
aF-0.023809402035070312
aF-0.024391425933081304
aF0
aF0
aa(lp58
F-0.015243657903618042
aF0.0092881242988613298
aF0
aF-0.0061358697033873288
aF0.003086875517660606
aF-0.018461937925834282
aF-0.0062691402060503533
aF-0.041009358752166387
aF0.0065786756067698002
aF0
aa(lp59
F-0.023275115241006426
aF0.034893576186788323
aF0.011513218304178778
aF0.0089430436974718801
aF0.0032231818150756045
aF-0.001606364138511167
aF-0.016090174167297421
aF-0.031071043624652534
aF-0.003797502702001767
aF0.012282898912789476
aasg15
S'PSX'
p60
sg17
(lp61
g19
(g21
S'\x00\x00\x00\x00\x00\x00\x00\x00'
tRp62
ag19
(g21
S'\x1c\x9f\xb0\x86\xdf+\x90?'
tRp63
ag19
(g21
S'Q\xbd\x08*\x08\xe5\x97?'
tRp64
ag19
(g21
S'8\x04\n\x82:\xe5\x9f?'
tRp65
ag19
(g21
S'"x\xa4\xf7\xc0\x0b\xa1?'
tRp66
ag19
(g21
S'\xf2\xba\xa9\xa7A`\xa2?'
tRp67
ag19
(g21
S'q)P\x99\xfdg\xa0?'
tRp68
ag19
(g21
S'\xedLj\x11\x82(\xa1?'
tRp69
ag19
(g21
S'0\x92kmZ\xe4\x9d?'
tRp70
ag19
(g21
S'E\xbaR\x1b\xb3\x82\x9d?'
tRp71
asg32
(lp72
F-0.021877396773948184
aF0.024057190531672538
aF0.01206345396825392
aF-0.0045169512365225923
aF0.0055457905493214842
aF-0.023188756871255371
aF-0.020017926344155137
aF-0.027497786008990905
aF0.0078093580641991371
aF0.0048096327270442532
asg34
(lp73
g19
(g21
S'\x00\x00\x00\x00\x00\x00\x00\x00'
tRp74
ag19
(g21
S'#\x0bT\xdf\xdf\x9ck?'
tRp75
ag19
(g21
S'\xfe}E4\xbb\xadr?'
tRp76
ag19
(g21
S'\xdb\xc7;&8o\x8c?'
tRp77
ag19
(g21
S'\xdb!\t\xbcie\x93?'
tRp78
ag19
(g21
S'e\xd3j\xdb\xcb\xf9\x91?'
tRp79
ag19
(g21
S'8\x8f0\x89\x98\xa2\x92?'
tRp80
ag19
(g21
S'+I\xe1\xc4\xd5\x03\x9b?'
tRp81
ag19
(g21
S'\xacl\x94\xda"\xbb\xa0?'
tRp82
ag19
(g21
S'x\xf7h?\xe0\x0c\xa6?'
tRp83
asg46
g19
(g21
S'\x10|\x1d2\x11\xe9\xf7?'
tRp84
sa(dp85
g3
(lp86
(lp87
F-0.037800089489175903
aF0.0071417585096209884
aF0.014185356757234825
aF0.02097887934469566
aF0.010272826538832358
aF-0.027118780086030556
aF0
aF-0.024388724279076936
aF0.010713087497335273
aF0.014133898262096467
aa(lp88
F-0.033675967163274208
aF0.011738811445341038
aF0.022117512690355348
aF0.018446185936637643
aF-0.019505364664067083
aF-0.0085257548845470137
aF-0.0035829810103905017
aF-0.0111470338420365
aF0.017090872727272777
aF0.0064355025540042809
aa(lp89
F-0.033950620792131923
aF0.020766721902544423
aF0.020865922174075988
aF0.024016424097442216
aF-0.0064870600110563817
aF-0.00050229386920493612
aF0.0075376897103431716
aF0.011471390403329836
aF0.010354981085551107
aF0.01171298345081725
aa(lp90
F-0.033126344880576856
aF0.014987393999557173
aF0.004220577225227555
aF0.0042028388194248426
aF0.0041832882828716543
aF-0.012501488737335991
aF-0.0021089705060475332
aF-0.0063409434341085901
aF0.010637894833392851
aF0.0042090531471879328
aa(lp91
F-0.021397458930579309
aF0.0079510259068725046
aF0.029581146687108251
aF0.019160525880391393
aF-0.0056350955624793206
aF-0.01701678759469899
aF0.0038423579237852803
aF-0.0019090527280363147
aF0
aF0.0019127041811713061
aa(lp92
F-0.049164209835813953
aF0.0099276647608368285
aF0.0016382941914228556
aF0.03782456498776559
aF0.014578421234585862
aF-0.019223317917440655
aF0.026727426141410722
aF0.0073274262388759526
aF0.018376717715990188
aF0.012406005305913362
aa(lp93
F-0.045740795394929097
aF0.018182367141831319
aF0.030844414120387027
aF0.034644686843298723
aF-0.0045647881511337463
aF-0.021407479478285377
aF-0.0062501178892903353
aF0.0031455878977658044
aF0.01253916231972392
aF-0.02786464947832314
aa(lp94
F-0.020536379806359126
aF0.012409099565244695
aF0.031980796953610162
aF0.00600685961791852
aF-0.0044782408329205646
aF-0.02821701299115385
aF-0.003506799562183807
aF-0.0038007397794867261
aF0.016815074829201616
aF0.0080600517985351238
aa(lp95
F-0.026442189089073819
aF0.0018517900091487717
aF0.016635859519408477
aF0.030909090909091004
aF-0.0035272780717225892
aF-0.017699172997099041
aF-0.0060060660660659999
aF0.00181274935424459
aF-0.0048250904704462182
aF0.0066667272727273007
aa(lp96
F-0.018839198288062846
aF0.014872414602601303
aF0.021216034805954104
aF0.010494793907618313
aF-0.0023315056910968687
aF-0.0083917710213060794
aF-0.0063202644298917905
aF-0.0084087769686186538
aF0.015329368473805215
aF0.0083520632087301858
aasg15
S'IP'
p97
sg17
(lp98
g19
(g21
S'\x00\x00\x00\x00\x00\x00\x00\x00'
tRp99
ag19
(g21
S'VU\x87\x1e\x969\x87?'
tRp100
ag19
(g21
S'\x13?p\xedj"\x93?'
tRp101
ag19
(g21
S'\xe4\x96\xc0\x15\xde\xd4\x9d?'
tRp102
ag19
(g21
S'\x99\x8b\x94\xf2x\x88\x9b?'
tRp103
ag19
(g21
S'\x1b^\xcdxh\xe4\x9e?'
tRp104
ag19
(g21
S'\xa2\xf3\xcc\xa6\x92\xf0\xa1?'
tRp105
ag19
(g21
S'\x87O\xd6\xea5\xfd\xa3?'
tRp106
ag19
(g21
S'Pd\xc8g\x0e\xec\xa4?'
tRp107
ag19
(g21
S"'\x05\xd9\x9c\xbc~\xa3?"
tRp108
asg32
(lp109
F-0.04181774333617936
aF0.015640742069645358
aF0.022603081102984569
aF0.029390407062929669
aF0.0077866444599659955
aF-0.022243058352682244
aF0.0047892962063839249
aF-0.0014298618071941025
aF0.020286347480365261
aF0.0065496842105262354
asg34
(lp110
g19
(g21
S'\x00\x00\x00\x00\x00\x00\x00\x00'
tRp111
ag19
(g21
S'\xb7\x1a\xa4\x9f\x8b\xa2x?'
tRp112
ag19
(g21
S'b \x88\xcc\x1b\x18u?'
tRp113
ag19
(g21
S'\x1e!\xe3\xda\x10c\x8d?'
tRp114
ag19
(g21
S'\xc6\x0c\x034v\x19\x8b?'
tRp115
ag19
(g21
S"\xc5\x9e'\xe7\xa1\xe0\x8a?"
tRp116
ag19
(g21
S'\xb4PD\xd5\x10q\x96?'
tRp117
ag19
(g21
S'c\xe6\xceYX\xd3\x96?'
tRp118
ag19
(g21
S'Nm\x12W"\xbd\x9d?'
tRp119
ag19
(g21
S'(#pS\xd3l\xa3?'
tRp120
asg46
g19
(g21
S'2\xea\xb3\x85\x99\xe2\xef?'
tRp121
sa(dp122
g3
(lp123
(lp124
F-0.012293387662548123
aF0.016599371915657173
aF0.020406922180529571
aF0.019998808060730889
aF0.0039241819620279266
aF0.011717091002897306
aF0.0077224819531490144
aF-0.0038285654335235533
aF0.015380088202610557
aF-0.018938290398305212
aa(lp125
F-0.010101110104895528
aF0.0051020918439284892
aF0.025380768103630286
aF0.024752339601574146
aF0.014492713256886856
aF0.00952390539789859
aF0
aF0.0023576982091899775
aF0
aF-0.014116171084911359
aa(lp126
F-0.0023682441368405682
aF0.016023760821971589
aF0.021612082369602336
aF0.024585488612504716
aF0.00055808249808992412
aF0.0016731067587761003
aF-0.0022271517119305329
aF-0.0083845547218588876
aF0.0016911178147498305
aF-0.024198085607419272
aa(lp127
F-0.012553493011778312
aF0.022883625362146227
aF0.024711232805817416
aF0.038812829025618903
aF0.00068674042979980374
aF0.010020654403499221
aF0.0012231392315071876
aF-0.0065155186536660836
aF0.0027325619564777335
aF-0.0062678470856108613
aa(lp128
F-0.017782991047829686
aF0.021535918534562711
aF0.025441410228771544
aF0.006411606452131801
aF0.0033930653994458707
aF0.0097998202939337982
aF-0.0012984910630922909
aF-0.0020529272009355702
aF0.02043463942792972
aF-0.0081310617478904147
aa(lp129
F-0.01910113267129418
aF0.013745811404352784
aF0.0144067352412857
aF0.020328569441693395
aF0.016648493313503092
aF0.0091275342520556538
aF-0.0053206072304084048
aF0.01016318240899599
aF0.0119142411002757
aF-0.017006841691158899
aa(lp130
F-0.020157158324199041
aF0.01499300657061178
aF0.024046698605902462
aF0.018450228111760593
aF-0.0072464084116608696
aF0.00099537968715167585
aF-0.0013258531888700202
aF-0.0036508251613349861
aF-0.0043304789255470414
aF-0.0040146701072690675
aa(lp131
F-0.013616148986558793
aF-0.001100339473253752
aF0.019327060747543579
aF0.017781680999814871
aF0.008687277491006366
aF0.0037320473050711173
aF0.0022880965323915422
aF-0.0058023479110387109
aF-0.0028702224635446384
aF-0.010074864925173663
aa(lp132
F0.010656029434196052
aF0.012302893281103358
aF0.02256890615266385
aF0.025467357466907602
aF-0.0033112268921011039
aF0.0033222275412774609
aF-0.0049673942814587677
aF-0.011646717113546923
aF0.0084179916107976725
aF-0.013355583329433729
aa(lp133
F-0.0029060828304705876
aF0.0081608428101261829
aF0.030933797556169668
aF0.01430167981047189
aF0.013270758367338677
aF0.009549772669956472
aF-0.006756780212460207
aF-0.0051700250720584668
aF0.010120312548576958
aF-0.022474992384921351
aasg15
S'CTAS'
p134
sg17
(lp135
g19
(g21
S'\x00\x00\x00\x00\x00\x00\x00\x00'
tRp136
ag19
(g21
S'\xa8\xcd\x03|\xd6\xd0\x8d?'
tRp137
ag19
(g21
S'7\x0cQ\xdd\x96]\x95?'
tRp138
ag19
(g21
S'|r}\xbc\xe9\x19\x9f?'
tRp139
ag19
(g21
S'hG\x1d\xee\x1bf\x9f?'
tRp140
ag19
(g21
S'$\x1a\x07-\x9b\x18\x9c?'
tRp141
ag19
(g21
S'\xa7(\x84\xea\xa4x\x94?'
tRp142
ag19
(g21
S'\x8d\xc1\xf9]Sy\x8d?'
tRp143
ag19
(g21
S'\x98\xe0W\xc6\t\xbe\x92?'
tRp144
ag19
(g21
S'\xf5\xc6\xceh\xe4p\x98?'
tRp145
asg32
(lp146
F-0.018214989430729793
aF0.01811638169103073
aF0.025297469982876266
aF0.025927809180809034
aF0.0080505556318319644
aF0.0058633442350048692
aF-0.0020100201005024743
aF-0.0054380763714579512
aF0.0088091837017176544
aF-0.015657904717190845
asg34
(lp147
g19
(g21
S'\x00\x00\x00\x00\x00\x00\x00\x00'
tRp148
ag19
(g21
S'>G\xca4\x81id?'
tRp149
ag19
(g21
S'\xfb& d\tJz?'
tRp150
ag19
(g21
S'\x11\x00^\x14&\x9e\x85?'
tRp151
ag19
(g21
S'\xc8N\x9c,\xc5\xc9\x87?'
tRp152
ag19
(g21
S'\xa6\xac\x8a\x91\xb8\x12\x96?'
tRp153
ag19
(g21
S'\xb3F\x12mq\xc6\x91?'
tRp154
ag19
(g21
S'q\xb4s\xb5eW\x93?'
tRp155
ag19
(g21
S'\xf2\xf23L\xa9:\x9c?'
tRp156
ag19
(g21
S'(\xa1\xa8\x9a\x874\x9f?'
tRp157
asg46
g19
(g21
S'\xf9\\7\x8a\x98m\xf4?'
tRp158
sa(dp159
g3
(lp160
(lp161
F-0.0026490084365328711
aF0.0083001444201310868
aF0.012347716958081798
aF0.01187182513936192
aF0.00080360355114974071
aF-0.00032306605513237783
aF0.0043632938202362746
aF0.00048266115425866428
aF0.0088452789631753657
aF0.0023912411427728241
aa(lp162
F-0.0081176943708740085
aF0.0086956406481678884
aF0.0027890524355466597
aF0.0093552367456995918
aF0.0082665790868185901
aF-0.006211192742431264
aF-0.006249983984477331
aF0.0020126116711196092
aF0.017825737212702274
aF0
aa(lp163
F-0.0036658581739579948
aF0.0071748203211887546
aF0.0043838405874378405
aF0.0067894941347815124
aF-0.00090323337062587084
aF0.0004219068459793398
aF-0.0075903313253012257
aF-0.0010319169287386664
aF0.018533073283517481
aF0.0069800622533130428
aa(lp164
F-0.0048778597857461505
aF0.0073539526927938912
aF0.014596668790248011
aF0.0071952403355027856
aF0.014287677398288613
aF0
aF0
aF0
aF0.0070432076208090883
aF0
aa(lp165
F-0.0069084596399017839
aF0.0054347832210020963
aF0.0072432263501370263
aF0.012235695757415153
aF0.0036051636975074175
aF0.0042261228472385099
aF0.0037874844760343736
aF0.0094329024316929556
aF0.014017303610537912
aF0.0055293142031196257
aa(lp166
F-0.0018443691036044195
aF0.0066215021168666106
aF0.0071897427622295423
aF0.01974488926510461
aF0.0064045332925576808
aF-0.0041438462837887144
aF-0.0068360567934438073
aF-0.0082298835085830753
aF0.017803253919981422
aF0.0025199860456356308
aa(lp167
F-0.0017222601293173437
aF0.0010979204070928825
aF0.012689917117248539
aF0.0092821572285472897
aF-0.00061312789365949177
aF0.0092025448370801326
aF-0.0088146122892067431
aF0.0016865947923039167
aF0.016072187855919365
aF0.010695983959353525
aa(lp168
F0.0046345792587119683
aF0.010172709605775883
aF0.013700216049139976
aF0.00092412128929473733
aF0.010963616394130956
aF-0.003538785387593512
aF-0.0035513528632120351
aF0.00068978687288811526
aF0.018037672168902657
aF0.0021442530833586586
aa(lp169
F-0.00076925493741639118
aF-0.0030793113294306012
aF0.016988486523335847
aF0.0091115985660220455
aF0.0045146634817049801
aF0.0014980992428920493
aF0.0014959333580828117
aF0.0044809467577666398
aF0.0089219148899340253
aF0.0073692065126074648
aa(lp170
F0.0076726013792134265
aF0.0050761804559772477
aF0.015151450115179233
aF0.0099503241369444679
aF0.014778261532455313
aF0.0048544056494630779
aF-0.0048309542379182304
aF0
aF0.0097088112989261559
aF0.0072115073579234008
aasg15
S'UPS'
p171
sg17
(lp172
g19
(g21
S'\x00\x00\x00\x00\x00\x00\x00\x00'
tRp173
ag19
(g21
S'\xea\x83\xfdB\x81\x8d\x83?'
tRp174
ag19
(g21
S'\x8bv~\xea\xa6\x16\x88?'
tRp175
ag19
(g21
S'f\xf2\x90\xe5\xf9\xd9\x90?'
tRp176
ag19
(g21
S'iC\xd8\xb7\xf2\r\x94?'
tRp177
ag19
(g21
S'\xf0s\xa4\xbd\xce\xc4\x94?'
tRp178
ag19
(g21
S'V<\xdbc\xac\xa9\x91?'
tRp179
ag19
(g21
S'oL\xcd{\xd0\x12\x97?'
tRp180
ag19
(g21
S'\x97\xf6*\xff\xd8s\x92?'
tRp181
ag19
(g21
S'\xce\xa0\xb2mg\x84\x90?'
tRp182
asg32
(lp183
F-0.0061297478735849592
aF0.00886580925698594
aF0.01576076003895761
aF0.012977290313232633
aF0.005941329317291787
aF0.000830527862398223
aF-0.0067311758431860529
aF0.0012068046675937465
aF0.015484460185154609
aF0.0044741144395757833
asg34
(lp184
g19
(g21
S'\x00\x00\x00\x00\x00\x00\x00\x00'
tRp185
ag19
(g21
S'F\xcb\x04\xb8\x9eN:?'
tRp186
ag19
(g21
S'\xae3~p\xd8\xb9i?'
tRp187
ag19
(g21
S'c\xa9\x13t\x87\xfb}?'
tRp188
ag19
(g21
S'\xb3? \xdc\x0cz\x89?'
tRp189
ag19
(g21
S'\xb8+\xb4\xa0\xb4\x81\x89?'
tRp190
ag19
(g21
S'\x1d%\xa7\xeb\xeb\x10\x8a?'
tRp191
ag19
(g21
S'=\x11\xb2\xee\xa6$\x91?'
tRp192
ag19
(g21
S'M\x0b\xf4L;*\x9b?'
tRp193
ag19
(g21
S'8\xc9\xa29\x15v\x9d?'
tRp194
asg46
g19
(g21
S'\xef!\x05\xec\xea\x89\xfc?'
tRp195
sa(dp196
g3
(lp197
(lp198
F-0.0073231569355129674
aF0.013228211314469327
aF0.015817147084250787
aF0.024715769271274571
aF-0.0041002895344982217
aF0.0050859528920816303
aF0
aF-0.00048192771084344882
aF-0.0019285920925746444
aF0.0045893234497912045
aa(lp199
F0.0040290622419859685
aF0.017656503042041714
aF0.018401705505533703
aF0.026587464840228912
aF-0.0030173341432077703
aF-0.0030265418860198861
aF-0.0015177633391829637
aF-0.001520197495829882
aF0.0012687133565940979
aF0.0065890058813897574
aa(lp200
F-0.015385193198032625
aF0.028673501332832162
aF0.020904935110750054
aF0.010239906282262443
aF0.010135789520736422
aF0.0033448022651407787
aF0.0033336518588519578
aF-0.0066451510973958711
aF0.0033448022651407787
aF0.00666474699113229
aa(lp201
F-0.001769918285571717
aF0.02659572902468129
aF0.013816887228627565
aF0.022146469412984843
aF0.0016666842816960795
aF0.006655611123237498
aF-0.0016528989659112504
aF-0.001655635564223437
aF0.0082918621480147017
aF0.019736853529638044
aa(lp202
F-0.012143685536752149
aF0.027325040110778191
aF0.015477594590013289
aF0.015498000317875732
aF0.0048558295530900771
aF-0.004769638736645718
aF0.0027757505628537862
aF-0.0064167395034439535
aF-0.0029758183343653356
aF0.0072394685709346786
aa(lp203
F-0.0073871545417579943
aF0.015711151812809566
aF0.016282287315921185
aF0.010947919606597887
aF-0.0031695559552764965
aF0.0074191647385872372
aF0.0057864593027444934
aF-0.008629753238211104
aF0.010815077849145292
aF0.0062630995020378213
aa(lp204
F-0.01048615579580754
aF0.0086705214520113698
aF0.016236881138571947
aF0.024436001730299646
aF-0.0073394622728911521
aF0.006469626197574233
aF0.0027547876627304273
aF0
aF0.027472497690323908
aF0.0053475293248063209
aa(lp205
F-0.0020383593043240477
aF0.019607809161593107
aF0.023637854782974851
aF0.030919777212299961
aF0.0018982485744759782
aF0.013262605591480077
aF-0.0011219280290267065
aF-0.010482913088251099
aF0.0064320509806942228
aF0.0060150543183839769
aa(lp206
F-0.0083458514275740973
aF0.0210402271789733
aF-0.0016485119198477239
aF0.026089788195859609
aF-0.0054715041084690127
aF0.0029126150307672762
aF0.0035495582681475363
aF-0.001607747248039669
aF0.0038647597284272805
aF-0.010426728419934571
aa(lp207
F-0.012121212121212121
aF0.016196319018404823
aF0.01207437816952427
aF0.020281507993319174
aF-0.0016370206565492077
aF-0.0032794566240210163
aF0.0098707875410291735
aF-0.0097743074290364516
aF0.0032902468458342517
aF0.0079643946583366348
aasg15
S'CINF'
p208
sg17
(lp209
g19
(g21
S'\x00\x00\x00\x00\x00\x00\x00\x00'
tRp210
ag19
(g21
S'=\xe8E\xaf\x1cc\x90?'
tRp211
ag19
(g21
S'6\xb8{\xc5\xb19\x91?'
tRp212
ag19
(g21
S'\xf8R\xed\x0fQ\xf2\x92?'
tRp213
ag19
(g21
S'L\x16\xab%5\xfe\x96?'
tRp214
ag19
(g21
S'\x93\xa6h\x8e\xf7,\x92?'
tRp215
ag19
(g21
S'\xfe\x9a\xb1_\xd3E\x92?'
tRp216
ag19
(g21
S'e\x84\xd5x\xca\x04\x94?'
tRp217
ag19
(g21
S'\xebIs\x83\xa4#\x96?'
tRp218
ag19
(g21
S'/:qf\xdar\x96?'
tRp219
asg32
(lp220
F-0.010682239149440808
aF0.028505658343012798
aF0.020156704362914155
aF0.027579611453606399
aF-0.0032046602110383585
aF0.0020093904351134936
aF0.0029410961387260877
aF-0.00066643564381917066
aF0.0097371747400670297
aF0.006076710940952937
asg34
(lp221
g19
(g21
S'\x00\x00\x00\x00\x00\x00\x00\x00'
tRp222
ag19
(g21
S'7\xef8\x98\x97\x1e\x81?'
tRp223
ag19
(g21
S'\xba\x1c\x88e\xc8\x14\x8e?'
tRp224
ag19
(g21
S'\xe3\x13qu\x97\xe9\x84?'
tRp225
ag19
(g21
S'"\x15\x88\n\xf3:\x91?'
tRp226
ag19
(g21
S'\x03\xb5Yb~!\x95?'
tRp227
ag19
(g21
S"\x89sn\x80\xb3'\x95?"
tRp228
ag19
(g21
S'\xdaW^*\xd2\xc0\x91?'
tRp229
ag19
(g21
S'w\x14\x8b\xcaq\x1f\x95?'
tRp230
ag19
(g21
S'\x88\x07\xab\x9a\x87\xa5\x9a?'
tRp231
asg46
g19
(g21
S'\x17\x08\xf6t\xf6\xfd\xf2?'
tRp232
sa(dp233
g15
S'SPXLINE'
p234
sg34
(lp235
g19
(g21
S'\x00\x00\x00\x00\x00\x00\x00\x00'
tRp236
ag19
(g21
S'\xd0\xa5\xb3E\x8e\xeb:\xbf'
tRp237
ag19
(g21
S"iI'\x18\x92}S\xbf"
tRp238
ag19
(g21
S'\x80s\x92x\x81\x84H\xbf'
tRp239
ag19
(g21
S'\xe3\xb6\xd2%\xec-Y\xbf'
tRp240
ag19
(g21
S'"ry>\xd4\x19V\xbf'
tRp241
ag19
(g21
S'4?D\xf6s\xac@\xbf'
tRp242
ag19
(g21
S'\r\xaf0\xf1v\xa5Q\xbf'
tRp243
ag19
(g21
S'\x96\x8c9\n\t\xec5\xbf'
tRp244
ag19
(g21
S'5H\x8f\xb1\xadW*?'
tRp245
asa.