(lp1
(lp2
F68.25
aF68.019999999999996
aF68.215000000000003
aF68.090000000000003
aF67.900000000000006
aF67.950100000000006
aF67.930000000000007
aF67.939999999999998
aF68.040000000000006
aF68.139899999999997
aF68.120000000000005
aF67.989999999999995
aF67.959999999999994
aF67.997500000000002
aF67.980000000000004
aF67.890000000000001
aF67.969999999999999
aF68.040000000000006
aF68.209999999999994
aF68.257499999999993
aF68.140000000000001
aF68.144999999999996
aF67.959999999999994
aF67.969999999999999
aF67.920000000000002
aF68.060000000000002
aF68.060000000000002
aF68.040000000000006
aF68.120000000000005
aF68.296000000000006
aF68.299999999999997
aF68.170000000000002
aF68.189999999999998
aF68.200000000000003
aF68.25
aF68.132499999999993
aF68.120000000000005
aF68.049999999999997
aF67.980000000000004
aF67.980000000000004
aF68.097499999999997
aF68.040000000000006
aF67.950000000000003
aF67.890000000000001
aF67.849999999999994
aF67.939999999999998
aF68.055000000000007
aF68.069999999999993
aF68.030000000000001
aF67.969999999999999
aF67.799999999999997
aF67.599999999999994
aF67.409999999999997
aF67.530000000000001
aF67.578000000000003
aF68.099999999999994
aF67.890000000000001
aF68.010000000000005
aF68.230000000000004
aF68.254599999999996
aF68.474999999999994
aF68.540000000000006
aF68.590000000000003
aF68.569999999999993
aF68.409999999999997
aF68.375
aF68.537499999999994
aF68.599999999999994
aF68.409999999999997
aF68.489999999999995
aF68.590000000000003
aF68.625
aF68.719999999999999
aF68.739999999999995
aF68.700199999999995
aF68.719999999999999
aF68.769999999999996
aF68.75
aF68.829999999999998
aF68.819999999999993
aF69.010000000000005
aF69.030000000000001
aF69.170000000000002
aF69.239999999999995
aF69.150000000000006
aF68.909999999999997
aF68.879999999999995
aF69.049999999999997
aF69.010000000000005
aF69.010000000000005
aF69.090000000000003
aF69.120000000000005
aa(lp3
F63.920000000000002
aF63.82
aF63.770000000000003
aF63.920000000000002
aF63.82
aF63.710000000000001
aF63.869999999999997
aF63.75
aF63.659999999999997
aF63.700000000000003
aF63.789999999999999
aF63.726399999999998
aF63.740000000000002
aF63.770000000000003
aF63.734999999999999
aF63.770000000000003
aF63.899999999999999
aF63.890000000000001
aF63.869999999999997
aF63.810000000000002
aF63.780000000000001
aF63.700000000000003
aF63.68
aF63.649999999999999
aF63.789999999999999
aF64.099999999999994
aF63.93
aF63.609999999999999
aF63.509999999999998
aF63.814999999999998
aF63.765000000000001
aF63.75
aF63.780000000000001
aF63.859999999999999
aF63.829999999999998
aF63.780000000000001
aF63.740000000000002
aF63.526499999999999
aF63.600000000000001
aF63.700000000000003
aF63.439999999999998
aF63.414999999999999
aF63.539999999999999
aF63.579999999999998
aF63.579999999999998
aF63.460000000000001
aF63.564999999999998
aF63.509999999999998
aF63.439999999999998
aF63.409999999999997
aF63.225000000000001
aF63.329999999999998
aF63.509999999999998
aF63.5
aF63.479999999999997
aF63.7547
aF63.82
aF63.880000000000003
aF63.850000000000001
aF63.960000000000001
aF63.799999999999997
aF63.740000000000002
aF63.706499999999998
aF63.68
aF63.700000000000003
aF63.719999999999999
aF63.720100000000002
aF63.700000000000003
aF63.740000000000002
aF63.783999999999999
aF63.780000000000001
aF63.710099999999997
aF63.759999999999998
aF63.729999999999997
aF63.854999999999997
aF63.844999999999999
aF63.82
aF63.829999999999998
aF63.274999999999999
aF63.159999999999997
aF62.719999999999999
aF62.439999999999998
aF62.335999999999999
aF62.539999999999999
aF62.349899999999998
aF62.140000000000001
aF62.030000000000001
aF62.109999999999999
aF62.104999999999997
aF61.909999999999997
aF61.817
aF61.674999999999997
aa(lp4
F51.090000000000003
aF50.990000000000002
aF50.850000000000001
aF50.859999999999999
aF50.734999999999999
aF50.630000000000003
aF50.75
aF50.700000000000003
aF50.640000000000001
aF50.689999999999998
aF50.659999999999997
aF50.545000000000002
aF50.575000000000003
aF50.5899
aF50.575000000000003
aF50.469999999999999
aF50.530000000000001
aF50.640000000000001
aF50.649999999999999
aF50.689999999999998
aF50.586500000000001
aF50.549999999999997
aF50.460000000000001
aF50.439999999999998
aF50.469999999999999
aF50.560000000000002
aF50.890000000000001
aF51.299999999999997
aF51.409999999999997
aF51.43
aF51.57
aF51.403500000000001
aF51.350000000000001
aF51.204999999999998
aF51.140000000000001
aF50.920000000000002
aF51.039999999999999
aF51.030000000000001
aF50.990000000000002
aF51
aF51.176400000000001
aF51.359999999999999
aF51.289999999999999
aF51.289999999999999
aF51.369999999999997
aF51.280000000000001
aF51.262
aF51.327500000000001
aF51.375
aF51.244999999999997
aF51.149999999999999
aF51.049999999999997
aF51
aF51
aF50.710000000000001
aF50.524999999999999
aF50.445
aF50.314999999999998
aF50.454999999999998
aF50.509999999999998
aF50.609999999999999
aF50.829999999999998
aF50.805
aF50.770000000000003
aF50.810000000000002
aF50.920000000000002
aF50.875
aF50.82
aF50.82
aF50.740000000000002
aF50.746899999999997
aF50.829999999999998
aF50.8367
aF50.799999999999997
aF50.799999999999997
aF50.763300000000001
aF50.903599999999997
aF50.795999999999999
aF50.729999999999997
aF50.82
aF51.229999999999997
aF51.880000000000003
aF52.024999999999999
aF52.045000000000002
aF52.090000000000003
aF52.319899999999997
aF52.225000000000001
aF52.174999999999997
aF52.200000000000003
aF52.149999999999999
aF52.049999999999997
aF52.060000000000002
aa.