(lp1
(lp2
F63.82
aF63.659999999999997
aF63.740000000000002
aF63.899999999999999
aF63.780000000000001
aF63.789999999999999
aF63.609999999999999
aF63.75
aF63.780000000000001
aF63.700000000000003
aF63.579999999999998
aF63.509999999999998
aF63.329999999999998
aF63.5
aF63.880000000000003
aF63.740000000000002
aF63.719999999999999
aF63.783999999999999
aF63.729999999999997
aF63.829999999999998
aF63.159999999999997
aF62.539999999999999
aF62.109999999999999
aF61.674999999999997
aF61.18
aF61.609999999999999
aF62.07
aF62.560000000000002
aF62.149999999999999
aF61.75
aF61.802300000000002
aF61.655000000000001
aF61.674999999999997
aF61.590000000000003
aF61.399999999999999
aF61.186599999999999
aF61.299999999999997
aF61.280000000000001
aF61.397500000000001
aF61.577100000000002
aF61.670000000000002
aF61.829999999999998
aF62.305
aF62.109999999999999
aF62.259999999999998
aF62.231999999999999
aF62.289999999999999
aF62.170000000000002
aF61.240000000000002
aF61.340000000000003
aF61.770000000000003
aF61.640000000000001
aF61.704999999999998
aF61.579999999999998
aF61.715000000000003
aF61.359999999999999
aF61.530000000000001
aF61.659999999999997
aF61.829999999999998
aF61.670000000000002
aF61.759900000000002
aF61.479999999999997
aF60.399999999999999
aF60.700000000000003
aF60.4831
aF60.5
aF60.289999999999999
aF60.270000000000003
aF60.189999999999998
aF59.740000000000002
aF60.07
aF60.259999999999998
aF60.049999999999997
aF60.18
aF60.380000000000003
aF60.509999999999998
aF60.32
aF60.530000000000001
aF60.590000000000003
aF60.939999999999998
aF61.039999999999999
aF61.079999999999998
aF61.225000000000001
aF61.469999999999999
aF61.234999999999999
aF61.244999999999997
aF61.140000000000001
aF61.185000000000002
aF61.203600000000002
aF61.350000000000001
aF61.719999999999999
aF61.549999999999997
aa(lp3
F12.74
aF12.69
aF12.6366
aF12.619999999999999
aF12.550000000000001
aF12.56
aF12.74
aF12.675000000000001
aF12.695
aF12.74
aF12.73
aF12.725
aF12.66
aF12.775
aF12.744999999999999
aF12.789999999999999
aF12.779999999999999
aF12.770099999999999
aF12.81
aF12.81
aF13.030099999999999
aF13.08
aF13.0725
aF13.045
aF13.09
aF13.065
aF13.055
aF13.029999999999999
aF13.055
aF13.125
aF13.095000000000001
aF13.050000000000001
aF13.063800000000001
aF13.09
aF12.949999999999999
aF12.875
aF12.904999999999999
aF12.917
aF12.92
aF12.92
aF12.94
aF13.130000000000001
aF13.18
aF13.23
aF13.23
aF13.2135
aF13.23
aF13.25
aF13.462899999999999
aF13.445
aF13.33
aF13.33
aF13.41
aF13.445
aF13.449999999999999
aF13.445
aF13.484999999999999
aF13.525
aF13.550000000000001
aF13.605
aF13.705
aF13.65
aF13.640000000000001
aF13.734999999999999
aF13.720000000000001
aF13.709
aF13.6661
aF13.664999999999999
aF13.65
aF13.77
aF13.619999999999999
aF13.595000000000001
aF13.535
aF13.57
aF13.625
aF13.619899999999999
aF13.52
aF13.475
aF13.539999999999999
aF13.5528
aF13.555
aF13.545
aF13.58
aF13.7356
aF13.664999999999999
aF13.7225
aF13.74
aF13.779999999999999
aF13.805
aF13.75
aF13.6532
aF13.625
aa.