(lp1
(lp2
F67.950100000000006
aF68.139899999999997
aF67.997500000000002
aF68.040000000000006
aF68.144999999999996
aF68.060000000000002
aF68.120000000000005
aF68.189999999999998
aF68.120000000000005
aF68.097499999999997
aF67.849999999999994
aF68.030000000000001
aF67.409999999999997
aF68.099999999999994
aF68.254599999999996
aF68.569999999999993
aF68.599999999999994
aF68.625
aF68.719999999999999
aF68.819999999999993
aF69.170000000000002
aF68.879999999999995
aF69.090000000000003
aF69.25
aF69.230000000000004
aF69.390000000000001
aF69.170000000000002
aF69
aF68.25
aF68.566400000000002
aF68.689999999999998
aF68.75
aF68.799999999999997
aF68.760000000000005
aF69.099999999999994
aF69.200000000000003
aF69.099999999999994
aF69.200000000000003
aF69.170000000000002
aF69.189999999999998
aF69.079999999999998
aF68.969999999999999
aF69.209999999999994
aF69.430000000000007
aF69.489999999999995
aF69.685000000000002
aF69.689999999999998
aF69.810000000000002
aF69.920000000000002
aF69.959999999999994
aF69.900000000000006
aF69.760000000000005
aF69.760999999999996
aF69.670000000000002
aF69.75
aF69.549999999999997
aF69.299999999999997
aF69.459999999999994
aF69.469999999999999
aF69.480000000000004
aF69.504999999999995
aF69.219999999999999
aF69.355000000000004
aF69.359999999999999
aF69.069999999999993
aF69.099999999999994
aF69.030000000000001
aF68.559899999999999
aF68.480000000000004
aF68.575000000000003
aF68.599999999999994
aF68.659999999999997
aF68.540000000000006
aF68.560000000000002
aF68.569999999999993
aF68.719999999999999
aF68.599999999999994
aF68.891000000000005
aF68.980000000000004
aF69.359999999999999
aF69.269999999999996
aF69.319999999999993
aF69.495000000000005
aF69.745000000000005
aF69.379999999999995
aF69.230000000000004
aF69.190100000000001
aF69.269999999999996
aF69.219999999999999
aF69.310000000000002
aF69.469999999999999
aF69.575000000000003
aa(lp3
F50.630000000000003
aF50.689999999999998
aF50.5899
aF50.640000000000001
aF50.549999999999997
aF50.560000000000002
aF51.409999999999997
aF51.350000000000001
aF51.039999999999999
aF51.176400000000001
aF51.369999999999997
aF51.375
aF51
aF50.524999999999999
aF50.509999999999998
aF50.770000000000003
aF50.82
aF50.829999999999998
aF50.763300000000001
aF50.82
aF52.024999999999999
aF52.225000000000001
aF52.049999999999997
aF51.982500000000002
aF51.950000000000003
aF51.873399999999997
aF51.920000000000002
aF51.619999999999997
aF51.630000000000003
aF51.729999999999997
aF51.810000000000002
aF51.765000000000001
aF51.789999999999999
aF51.82
aF51.579999999999998
aF51.82
aF51.808999999999997
aF51.670200000000001
aF51.555
aF51.420000000000002
aF51.060000000000002
aF51.5
aF51.359999999999999
aF51.420000000000002
aF51.633099999999999
aF51.630000000000003
aF51.600000000000001
aF51.549999999999997
aF51.640000000000001
aF51.659999999999997
aF51.689999999999998
aF51.390000000000001
aF51.859900000000003
aF51.659999999999997
aF51.829999999999998
aF52.409999999999997
aF52.130000000000003
aF52.369999999999997
aF52.403199999999998
aF52.280000000000001
aF52.292499999999997
aF52.090000000000003
aF50.829999999999998
aF51.310000000000002
aF51.149999999999999
aF51.490000000000002
aF51.719999999999999
aF51.627299999999998
aF51.670000000000002
aF52.68
aF52.509999999999998
aF52.630000000000003
aF52.149999999999999
aF52.420000000000002
aF52.57
aF52.640000000000001
aF52.68
aF52.390000000000001
aF52.359999999999999
aF52.390000000000001
aF52.210000000000001
aF52.380000000000003
aF52.43
aF52.914999999999999
aF52.619999999999997
aF52.789999999999999
aF52.780000000000001
aF52.830100000000002
aF52.755000000000003
aF52.909999999999997
aF52.689999999999998
aF52.439999999999998
aa.